
RobotArmTest.elf:     file format elf32-avr

Sections:
Idx Name          Size      VMA       LMA       File off  Algn
  0 .text         0000109e  00000000  00000000  00000094  2**1
                  CONTENTS, ALLOC, LOAD, READONLY, CODE
  1 .data         0000005a  00802000  0000109e  00001132  2**0
                  CONTENTS, ALLOC, LOAD, DATA
  2 .bss          00000032  0080205a  0080205a  0000118c  2**0
                  ALLOC
  3 .comment      00000030  00000000  00000000  0000118c  2**0
                  CONTENTS, READONLY
  4 .note.gnu.avr.deviceinfo 00000040  00000000  00000000  000011bc  2**2
                  CONTENTS, READONLY
  5 .debug_aranges 000002e0  00000000  00000000  000011fc  2**0
                  CONTENTS, READONLY, DEBUGGING
  6 .debug_info   000071d7  00000000  00000000  000014dc  2**0
                  CONTENTS, READONLY, DEBUGGING
  7 .debug_abbrev 00003660  00000000  00000000  000086b3  2**0
                  CONTENTS, READONLY, DEBUGGING
  8 .debug_line   00001f97  00000000  00000000  0000bd13  2**0
                  CONTENTS, READONLY, DEBUGGING
  9 .debug_frame  0000082c  00000000  00000000  0000dcac  2**2
                  CONTENTS, READONLY, DEBUGGING
 10 .debug_str    00002ddf  00000000  00000000  0000e4d8  2**0
                  CONTENTS, READONLY, DEBUGGING
 11 .debug_loc    00002209  00000000  00000000  000112b7  2**0
                  CONTENTS, READONLY, DEBUGGING
 12 .debug_ranges 00000268  00000000  00000000  000134c0  2**0
                  CONTENTS, READONLY, DEBUGGING

Disassembly of section .text:

00000000 <__vectors>:
       0:	0c 94 fe 00 	jmp	0x1fc	; 0x1fc <__ctors_end>
       4:	0c 94 1b 01 	jmp	0x236	; 0x236 <__bad_interrupt>
       8:	0c 94 1b 01 	jmp	0x236	; 0x236 <__bad_interrupt>
       c:	0c 94 1b 01 	jmp	0x236	; 0x236 <__bad_interrupt>
      10:	0c 94 1b 01 	jmp	0x236	; 0x236 <__bad_interrupt>
      14:	0c 94 1b 01 	jmp	0x236	; 0x236 <__bad_interrupt>
      18:	0c 94 1b 01 	jmp	0x236	; 0x236 <__bad_interrupt>
      1c:	0c 94 1b 01 	jmp	0x236	; 0x236 <__bad_interrupt>
      20:	0c 94 1b 01 	jmp	0x236	; 0x236 <__bad_interrupt>
      24:	0c 94 1b 01 	jmp	0x236	; 0x236 <__bad_interrupt>
      28:	0c 94 1b 01 	jmp	0x236	; 0x236 <__bad_interrupt>
      2c:	0c 94 1b 01 	jmp	0x236	; 0x236 <__bad_interrupt>
      30:	0c 94 1b 01 	jmp	0x236	; 0x236 <__bad_interrupt>
      34:	0c 94 1b 01 	jmp	0x236	; 0x236 <__bad_interrupt>
      38:	0c 94 1b 01 	jmp	0x236	; 0x236 <__bad_interrupt>
      3c:	0c 94 1b 01 	jmp	0x236	; 0x236 <__bad_interrupt>
      40:	0c 94 1b 01 	jmp	0x236	; 0x236 <__bad_interrupt>
      44:	0c 94 1b 01 	jmp	0x236	; 0x236 <__bad_interrupt>
      48:	0c 94 1b 01 	jmp	0x236	; 0x236 <__bad_interrupt>
      4c:	0c 94 1b 01 	jmp	0x236	; 0x236 <__bad_interrupt>
      50:	0c 94 74 06 	jmp	0xce8	; 0xce8 <__vector_20>
      54:	0c 94 1b 01 	jmp	0x236	; 0x236 <__bad_interrupt>
      58:	0c 94 1b 01 	jmp	0x236	; 0x236 <__bad_interrupt>
      5c:	0c 94 1b 01 	jmp	0x236	; 0x236 <__bad_interrupt>
      60:	0c 94 1b 01 	jmp	0x236	; 0x236 <__bad_interrupt>
      64:	0c 94 1b 01 	jmp	0x236	; 0x236 <__bad_interrupt>
      68:	0c 94 1b 01 	jmp	0x236	; 0x236 <__bad_interrupt>
      6c:	0c 94 1b 01 	jmp	0x236	; 0x236 <__bad_interrupt>
      70:	0c 94 1b 01 	jmp	0x236	; 0x236 <__bad_interrupt>
      74:	0c 94 1b 01 	jmp	0x236	; 0x236 <__bad_interrupt>
      78:	0c 94 1b 01 	jmp	0x236	; 0x236 <__bad_interrupt>
      7c:	0c 94 1b 01 	jmp	0x236	; 0x236 <__bad_interrupt>
      80:	0c 94 1b 01 	jmp	0x236	; 0x236 <__bad_interrupt>
      84:	0c 94 1b 01 	jmp	0x236	; 0x236 <__bad_interrupt>
      88:	0c 94 1b 01 	jmp	0x236	; 0x236 <__bad_interrupt>
      8c:	0c 94 1b 01 	jmp	0x236	; 0x236 <__bad_interrupt>
      90:	0c 94 1b 01 	jmp	0x236	; 0x236 <__bad_interrupt>
      94:	0c 94 1b 01 	jmp	0x236	; 0x236 <__bad_interrupt>
      98:	0c 94 1b 01 	jmp	0x236	; 0x236 <__bad_interrupt>
      9c:	0c 94 1b 01 	jmp	0x236	; 0x236 <__bad_interrupt>
      a0:	0c 94 1b 01 	jmp	0x236	; 0x236 <__bad_interrupt>
      a4:	0c 94 1b 01 	jmp	0x236	; 0x236 <__bad_interrupt>
      a8:	0c 94 1b 01 	jmp	0x236	; 0x236 <__bad_interrupt>
      ac:	0c 94 1b 01 	jmp	0x236	; 0x236 <__bad_interrupt>
      b0:	0c 94 1b 01 	jmp	0x236	; 0x236 <__bad_interrupt>
      b4:	0c 94 1b 01 	jmp	0x236	; 0x236 <__bad_interrupt>
      b8:	0c 94 1b 01 	jmp	0x236	; 0x236 <__bad_interrupt>
      bc:	0c 94 1b 01 	jmp	0x236	; 0x236 <__bad_interrupt>
      c0:	0c 94 1b 01 	jmp	0x236	; 0x236 <__bad_interrupt>
      c4:	0c 94 1b 01 	jmp	0x236	; 0x236 <__bad_interrupt>
      c8:	0c 94 1b 01 	jmp	0x236	; 0x236 <__bad_interrupt>
      cc:	0c 94 1b 01 	jmp	0x236	; 0x236 <__bad_interrupt>
      d0:	0c 94 1b 01 	jmp	0x236	; 0x236 <__bad_interrupt>
      d4:	0c 94 1b 01 	jmp	0x236	; 0x236 <__bad_interrupt>
      d8:	0c 94 1b 01 	jmp	0x236	; 0x236 <__bad_interrupt>
      dc:	0c 94 1b 01 	jmp	0x236	; 0x236 <__bad_interrupt>
      e0:	0c 94 1b 01 	jmp	0x236	; 0x236 <__bad_interrupt>
      e4:	0c 94 1b 01 	jmp	0x236	; 0x236 <__bad_interrupt>
      e8:	0c 94 1b 01 	jmp	0x236	; 0x236 <__bad_interrupt>
      ec:	0c 94 1b 01 	jmp	0x236	; 0x236 <__bad_interrupt>
      f0:	0c 94 1b 01 	jmp	0x236	; 0x236 <__bad_interrupt>
      f4:	0c 94 1b 01 	jmp	0x236	; 0x236 <__bad_interrupt>
      f8:	0c 94 1b 01 	jmp	0x236	; 0x236 <__bad_interrupt>
      fc:	0c 94 1b 01 	jmp	0x236	; 0x236 <__bad_interrupt>
     100:	0c 94 1b 01 	jmp	0x236	; 0x236 <__bad_interrupt>
     104:	0c 94 1b 01 	jmp	0x236	; 0x236 <__bad_interrupt>
     108:	0c 94 1b 01 	jmp	0x236	; 0x236 <__bad_interrupt>
     10c:	0c 94 1b 01 	jmp	0x236	; 0x236 <__bad_interrupt>
     110:	0c 94 1b 01 	jmp	0x236	; 0x236 <__bad_interrupt>
     114:	0c 94 1b 01 	jmp	0x236	; 0x236 <__bad_interrupt>
     118:	0c 94 1b 01 	jmp	0x236	; 0x236 <__bad_interrupt>
     11c:	0c 94 1b 01 	jmp	0x236	; 0x236 <__bad_interrupt>
     120:	0c 94 1b 01 	jmp	0x236	; 0x236 <__bad_interrupt>
     124:	0c 94 1b 01 	jmp	0x236	; 0x236 <__bad_interrupt>
     128:	0c 94 1b 01 	jmp	0x236	; 0x236 <__bad_interrupt>
     12c:	0c 94 1b 01 	jmp	0x236	; 0x236 <__bad_interrupt>
     130:	0c 94 1b 01 	jmp	0x236	; 0x236 <__bad_interrupt>
     134:	0c 94 1b 01 	jmp	0x236	; 0x236 <__bad_interrupt>
     138:	0c 94 1b 01 	jmp	0x236	; 0x236 <__bad_interrupt>
     13c:	0c 94 1b 01 	jmp	0x236	; 0x236 <__bad_interrupt>
     140:	0c 94 1b 01 	jmp	0x236	; 0x236 <__bad_interrupt>
     144:	0c 94 1b 01 	jmp	0x236	; 0x236 <__bad_interrupt>
     148:	0c 94 1b 01 	jmp	0x236	; 0x236 <__bad_interrupt>
     14c:	0c 94 9c 06 	jmp	0xd38	; 0xd38 <__vector_83>
     150:	0c 94 1b 01 	jmp	0x236	; 0x236 <__bad_interrupt>
     154:	0c 94 1b 01 	jmp	0x236	; 0x236 <__bad_interrupt>
     158:	0c 94 1b 01 	jmp	0x236	; 0x236 <__bad_interrupt>
     15c:	0c 94 1b 01 	jmp	0x236	; 0x236 <__bad_interrupt>
     160:	0c 94 1b 01 	jmp	0x236	; 0x236 <__bad_interrupt>
     164:	0c 94 1b 01 	jmp	0x236	; 0x236 <__bad_interrupt>
     168:	0c 94 1b 01 	jmp	0x236	; 0x236 <__bad_interrupt>
     16c:	0c 94 9b 05 	jmp	0xb36	; 0xb36 <__vector_91>
     170:	0c 94 61 05 	jmp	0xac2	; 0xac2 <__vector_92>
     174:	0c 94 1b 01 	jmp	0x236	; 0x236 <__bad_interrupt>
     178:	0c 94 1b 01 	jmp	0x236	; 0x236 <__bad_interrupt>
     17c:	0c 94 1b 01 	jmp	0x236	; 0x236 <__bad_interrupt>
     180:	0c 94 1b 01 	jmp	0x236	; 0x236 <__bad_interrupt>
     184:	0c 94 1b 01 	jmp	0x236	; 0x236 <__bad_interrupt>
     188:	0c 94 1b 01 	jmp	0x236	; 0x236 <__bad_interrupt>
     18c:	0c 94 1b 01 	jmp	0x236	; 0x236 <__bad_interrupt>
     190:	0c 94 1b 01 	jmp	0x236	; 0x236 <__bad_interrupt>
     194:	0c 94 1b 01 	jmp	0x236	; 0x236 <__bad_interrupt>
     198:	0c 94 1b 01 	jmp	0x236	; 0x236 <__bad_interrupt>
     19c:	0c 94 1b 01 	jmp	0x236	; 0x236 <__bad_interrupt>
     1a0:	0c 94 1b 01 	jmp	0x236	; 0x236 <__bad_interrupt>
     1a4:	0c 94 1b 01 	jmp	0x236	; 0x236 <__bad_interrupt>
     1a8:	0c 94 1b 01 	jmp	0x236	; 0x236 <__bad_interrupt>
     1ac:	0c 94 1b 01 	jmp	0x236	; 0x236 <__bad_interrupt>
     1b0:	0c 94 1b 01 	jmp	0x236	; 0x236 <__bad_interrupt>
     1b4:	0c 94 1b 01 	jmp	0x236	; 0x236 <__bad_interrupt>
     1b8:	0c 94 1b 01 	jmp	0x236	; 0x236 <__bad_interrupt>
     1bc:	0c 94 1b 01 	jmp	0x236	; 0x236 <__bad_interrupt>
     1c0:	0c 94 1b 01 	jmp	0x236	; 0x236 <__bad_interrupt>
     1c4:	0c 94 1b 01 	jmp	0x236	; 0x236 <__bad_interrupt>
     1c8:	0c 94 1b 01 	jmp	0x236	; 0x236 <__bad_interrupt>
     1cc:	0c 94 1b 01 	jmp	0x236	; 0x236 <__bad_interrupt>
     1d0:	0c 94 1b 01 	jmp	0x236	; 0x236 <__bad_interrupt>
     1d4:	0c 94 1b 01 	jmp	0x236	; 0x236 <__bad_interrupt>
     1d8:	0c 94 1b 01 	jmp	0x236	; 0x236 <__bad_interrupt>
     1dc:	0c 94 1b 01 	jmp	0x236	; 0x236 <__bad_interrupt>
     1e0:	0c 94 1b 01 	jmp	0x236	; 0x236 <__bad_interrupt>
     1e4:	0c 94 1b 01 	jmp	0x236	; 0x236 <__bad_interrupt>
     1e8:	0c 94 1b 01 	jmp	0x236	; 0x236 <__bad_interrupt>
     1ec:	0c 94 1b 01 	jmp	0x236	; 0x236 <__bad_interrupt>
     1f0:	0c 94 1b 01 	jmp	0x236	; 0x236 <__bad_interrupt>
     1f4:	0c 94 1b 01 	jmp	0x236	; 0x236 <__bad_interrupt>
     1f8:	0c 94 1b 01 	jmp	0x236	; 0x236 <__bad_interrupt>

000001fc <__ctors_end>:
     1fc:	11 24       	eor	r1, r1
     1fe:	1f be       	out	0x3f, r1	; 63
     200:	cf ef       	ldi	r28, 0xFF	; 255
     202:	cd bf       	out	0x3d, r28	; 61
     204:	d7 e2       	ldi	r29, 0x27	; 39
     206:	de bf       	out	0x3e, r29	; 62

00000208 <__do_copy_data>:
     208:	10 e2       	ldi	r17, 0x20	; 32
     20a:	a0 e0       	ldi	r26, 0x00	; 0
     20c:	b0 e2       	ldi	r27, 0x20	; 32
     20e:	ee e9       	ldi	r30, 0x9E	; 158
     210:	f0 e1       	ldi	r31, 0x10	; 16
     212:	02 c0       	rjmp	.+4      	; 0x218 <__do_copy_data+0x10>
     214:	05 90       	lpm	r0, Z+
     216:	0d 92       	st	X+, r0
     218:	aa 35       	cpi	r26, 0x5A	; 90
     21a:	b1 07       	cpc	r27, r17
     21c:	d9 f7       	brne	.-10     	; 0x214 <__do_copy_data+0xc>

0000021e <__do_clear_bss>:
     21e:	20 e2       	ldi	r18, 0x20	; 32
     220:	aa e5       	ldi	r26, 0x5A	; 90
     222:	b0 e2       	ldi	r27, 0x20	; 32
     224:	01 c0       	rjmp	.+2      	; 0x228 <.do_clear_bss_start>

00000226 <.do_clear_bss_loop>:
     226:	1d 92       	st	X+, r1

00000228 <.do_clear_bss_start>:
     228:	ac 38       	cpi	r26, 0x8C	; 140
     22a:	b2 07       	cpc	r27, r18
     22c:	e1 f7       	brne	.-8      	; 0x226 <.do_clear_bss_loop>
     22e:	0e 94 c8 06 	call	0xd90	; 0xd90 <main>
     232:	0c 94 4d 08 	jmp	0x109a	; 0x109a <_exit>

00000236 <__bad_interrupt>:
     236:	0c 94 00 00 	jmp	0	; 0x0 <__vectors>

0000023a <Data_CreateMove>:

void Data_DeleteList(list_t *list)
{
	if (list != NULL)																/* jeœli wskaŸnik nie jest pusty, to:									*/
	{
		free(list);																	/* zwolnij wskazywan¹ przez niego pamiêæ								*/
     23a:	0f 93       	push	r16
     23c:	1f 93       	push	r17
     23e:	cf 93       	push	r28
     240:	df 93       	push	r29
     242:	08 2f       	mov	r16, r24
     244:	16 2f       	mov	r17, r22
     246:	d4 2f       	mov	r29, r20
     248:	c2 2f       	mov	r28, r18
     24a:	84 e0       	ldi	r24, 0x04	; 4
     24c:	90 e0       	ldi	r25, 0x00	; 0
     24e:	0e 94 f1 06 	call	0xde2	; 0xde2 <malloc>
     252:	fc 01       	movw	r30, r24
     254:	00 83       	st	Z, r16
     256:	11 83       	std	Z+1, r17	; 0x01
     258:	d2 83       	std	Z+2, r29	; 0x02
     25a:	83 81       	ldd	r24, Z+3	; 0x03
     25c:	c0 fb       	bst	r28, 0
     25e:	80 f9       	bld	r24, 0
     260:	83 83       	std	Z+3, r24	; 0x03
     262:	cf 01       	movw	r24, r30
     264:	df 91       	pop	r29
     266:	cf 91       	pop	r28
     268:	1f 91       	pop	r17
     26a:	0f 91       	pop	r16
     26c:	08 95       	ret

0000026e <Data_CreateListElement>:
     26e:	0f 93       	push	r16
     270:	1f 93       	push	r17
     272:	cf 93       	push	r28
     274:	df 93       	push	r29
     276:	8c 01       	movw	r16, r24
     278:	eb 01       	movw	r28, r22
     27a:	84 e0       	ldi	r24, 0x04	; 4
     27c:	90 e0       	ldi	r25, 0x00	; 0
     27e:	0e 94 f1 06 	call	0xde2	; 0xde2 <malloc>
     282:	fc 01       	movw	r30, r24
     284:	02 83       	std	Z+2, r16	; 0x02
     286:	13 83       	std	Z+3, r17	; 0x03
     288:	c0 83       	st	Z, r28
     28a:	d1 83       	std	Z+1, r29	; 0x01
     28c:	df 91       	pop	r29
     28e:	cf 91       	pop	r28
     290:	1f 91       	pop	r17
     292:	0f 91       	pop	r16
     294:	08 95       	ret

00000296 <Data_CreateList>:
     296:	87 e0       	ldi	r24, 0x07	; 7
     298:	90 e0       	ldi	r25, 0x00	; 0
     29a:	0e 94 f1 06 	call	0xde2	; 0xde2 <malloc>
     29e:	fc 01       	movw	r30, r24
     2a0:	16 82       	std	Z+6, r1	; 0x06
     2a2:	14 82       	std	Z+4, r1	; 0x04
     2a4:	15 82       	std	Z+5, r1	; 0x05
     2a6:	10 82       	st	Z, r1
     2a8:	11 82       	std	Z+1, r1	; 0x01
     2aa:	12 82       	std	Z+2, r1	; 0x02
     2ac:	13 82       	std	Z+3, r1	; 0x03
     2ae:	08 95       	ret

000002b0 <Data_InsertElementToList>:
     2b0:	fc 01       	movw	r30, r24
     2b2:	82 81       	ldd	r24, Z+2	; 0x02
     2b4:	93 81       	ldd	r25, Z+3	; 0x03
     2b6:	89 2b       	or	r24, r25
     2b8:	51 f4       	brne	.+20     	; 0x2ce <Data_InsertElementToList+0x1e>
     2ba:	62 83       	std	Z+2, r22	; 0x02
     2bc:	73 83       	std	Z+3, r23	; 0x03
     2be:	db 01       	movw	r26, r22
     2c0:	1d 92       	st	X+, r1
     2c2:	1c 92       	st	X, r1
     2c4:	82 81       	ldd	r24, Z+2	; 0x02
     2c6:	93 81       	ldd	r25, Z+3	; 0x03
     2c8:	80 83       	st	Z, r24
     2ca:	91 83       	std	Z+1, r25	; 0x01
     2cc:	07 c0       	rjmp	.+14     	; 0x2dc <Data_InsertElementToList+0x2c>
     2ce:	80 81       	ld	r24, Z
     2d0:	91 81       	ldd	r25, Z+1	; 0x01
     2d2:	db 01       	movw	r26, r22
     2d4:	8d 93       	st	X+, r24
     2d6:	9c 93       	st	X, r25
     2d8:	60 83       	st	Z, r22
     2da:	71 83       	std	Z+1, r23	; 0x01
     2dc:	80 81       	ld	r24, Z
     2de:	91 81       	ldd	r25, Z+1	; 0x01
     2e0:	84 83       	std	Z+4, r24	; 0x04
     2e2:	95 83       	std	Z+5, r25	; 0x05
     2e4:	86 81       	ldd	r24, Z+6	; 0x06
     2e6:	8f 5f       	subi	r24, 0xFF	; 255
     2e8:	86 83       	std	Z+6, r24	; 0x06
     2ea:	08 95       	ret

000002ec <Data_InsertMoveToJob>:
	}
}

void Data_InsertMoveToJob(list_t *job, frame_t *frame)
{
     2ec:	ef 92       	push	r14
     2ee:	ff 92       	push	r15
     2f0:	0f 93       	push	r16
     2f2:	1f 93       	push	r17
     2f4:	cf 93       	push	r28
     2f6:	df 93       	push	r29
     2f8:	8c 01       	movw	r16, r24
     2fa:	eb 01       	movw	r28, r22
	/* funkcja tworzy listê zagnie¿d¿on¹ w liœcie job */
	Data_InsertElementToList(job, Data_CreateListElement(Data_CreateList(), job->Head));
     2fc:	dc 01       	movw	r26, r24
     2fe:	ed 90       	ld	r14, X+
     300:	fc 90       	ld	r15, X
     302:	0e 94 4b 01 	call	0x296	; 0x296 <Data_CreateList>
     306:	b7 01       	movw	r22, r14
     308:	0e 94 37 01 	call	0x26e	; 0x26e <Data_CreateListElement>
     30c:	bc 01       	movw	r22, r24
     30e:	c8 01       	movw	r24, r16
     310:	0e 94 58 01 	call	0x2b0	; 0x2b0 <Data_InsertElementToList>
	
	/* funkcja umieszcza w zagnie¿d¿onej liœcie dane ruchu osi */
	Data_InsertElementToList(job->Head->Data, Data_CreateListElement(Data_CreateMove(*frame->Data1, atoi(frame->Data2), atoi(frame->Data3), atoi(frame->Data4)), NULL));
     314:	8a 85       	ldd	r24, Y+10	; 0x0a
     316:	9b 85       	ldd	r25, Y+11	; 0x0b
     318:	0e 94 12 08 	call	0x1024	; 0x1024 <atoi>
     31c:	e8 2e       	mov	r14, r24
     31e:	88 85       	ldd	r24, Y+8	; 0x08
     320:	99 85       	ldd	r25, Y+9	; 0x09
     322:	0e 94 12 08 	call	0x1024	; 0x1024 <atoi>
     326:	f8 2e       	mov	r15, r24
     328:	8e 81       	ldd	r24, Y+6	; 0x06
     32a:	9f 81       	ldd	r25, Y+7	; 0x07
     32c:	0e 94 12 08 	call	0x1024	; 0x1024 <atoi>
     330:	ec 81       	ldd	r30, Y+4	; 0x04
     332:	fd 81       	ldd	r31, Y+5	; 0x05
     334:	2e 2d       	mov	r18, r14
     336:	4f 2d       	mov	r20, r15
     338:	68 2f       	mov	r22, r24
     33a:	80 81       	ld	r24, Z
     33c:	0e 94 1d 01 	call	0x23a	; 0x23a <Data_CreateMove>
     340:	60 e0       	ldi	r22, 0x00	; 0
     342:	70 e0       	ldi	r23, 0x00	; 0
     344:	0e 94 37 01 	call	0x26e	; 0x26e <Data_CreateListElement>
     348:	d8 01       	movw	r26, r16
     34a:	ed 91       	ld	r30, X+
     34c:	fc 91       	ld	r31, X
     34e:	bc 01       	movw	r22, r24
     350:	82 81       	ldd	r24, Z+2	; 0x02
     352:	93 81       	ldd	r25, Z+3	; 0x03
     354:	0e 94 58 01 	call	0x2b0	; 0x2b0 <Data_InsertElementToList>
}
     358:	df 91       	pop	r29
     35a:	cf 91       	pop	r28
     35c:	1f 91       	pop	r17
     35e:	0f 91       	pop	r16
     360:	ff 90       	pop	r15
     362:	ef 90       	pop	r14
     364:	08 95       	ret

00000366 <Data_InsertTaskToJob>:

void Data_InsertTaskToJob(list_t *job, frame_t *frame, uint8_t islastmove)
{
     366:	bf 92       	push	r11
     368:	cf 92       	push	r12
     36a:	df 92       	push	r13
     36c:	ef 92       	push	r14
     36e:	ff 92       	push	r15
     370:	0f 93       	push	r16
     372:	1f 93       	push	r17
     374:	cf 93       	push	r28
     376:	df 93       	push	r29
     378:	7c 01       	movw	r14, r24
     37a:	eb 01       	movw	r28, r22
     37c:	b4 2e       	mov	r11, r20
	static uint8_t NeedNewList = 1;
	list_t *ptrList = job->Head->Data;
     37e:	dc 01       	movw	r26, r24
     380:	cd 90       	ld	r12, X+
     382:	dc 90       	ld	r13, X
     384:	f6 01       	movw	r30, r12
     386:	02 81       	ldd	r16, Z+2	; 0x02
     388:	13 81       	ldd	r17, Z+3	; 0x03
	
	if (NeedNewList)
     38a:	80 91 06 20 	lds	r24, 0x2006	; 0x802006 <NeedNewList.3903>
     38e:	88 23       	and	r24, r24
     390:	81 f0       	breq	.+32     	; 0x3b2 <Data_InsertTaskToJob+0x4c>
	{
		/* funkcja tworzy listê zagnie¿d¿on¹ w liœcie job */
		Data_InsertElementToList(job, Data_CreateListElement(Data_CreateList(), job->Head));
     392:	0e 94 4b 01 	call	0x296	; 0x296 <Data_CreateList>
     396:	b6 01       	movw	r22, r12
     398:	0e 94 37 01 	call	0x26e	; 0x26e <Data_CreateListElement>
     39c:	bc 01       	movw	r22, r24
     39e:	c7 01       	movw	r24, r14
     3a0:	0e 94 58 01 	call	0x2b0	; 0x2b0 <Data_InsertElementToList>
		
		/* pobranie wskaŸnika na listê zagnie¿d¿on¹ */
		ptrList = job->Head->Data;
     3a4:	d7 01       	movw	r26, r14
     3a6:	ed 91       	ld	r30, X+
     3a8:	fc 91       	ld	r31, X
     3aa:	02 81       	ldd	r16, Z+2	; 0x02
     3ac:	13 81       	ldd	r17, Z+3	; 0x03
		
		/* nowa lista nie potrzebna (bo w³aœnie zosta³a utworzona */
		NeedNewList = 0;
     3ae:	10 92 06 20 	sts	0x2006, r1	; 0x802006 <NeedNewList.3903>
	}
	
	/* funkcja umieszcza w zagnie¿d¿onej liœcie dane ruchu osi */
	Data_InsertElementToList(ptrList, Data_CreateListElement(Data_CreateMove(*frame->Data1, atoi(frame->Data2), atoi(frame->Data3), atoi(frame->Data4)), ptrList->Head));
     3b2:	f8 01       	movw	r30, r16
     3b4:	e0 80       	ld	r14, Z
     3b6:	f1 80       	ldd	r15, Z+1	; 0x01
     3b8:	8a 85       	ldd	r24, Y+10	; 0x0a
     3ba:	9b 85       	ldd	r25, Y+11	; 0x0b
     3bc:	0e 94 12 08 	call	0x1024	; 0x1024 <atoi>
     3c0:	c8 2e       	mov	r12, r24
     3c2:	88 85       	ldd	r24, Y+8	; 0x08
     3c4:	99 85       	ldd	r25, Y+9	; 0x09
     3c6:	0e 94 12 08 	call	0x1024	; 0x1024 <atoi>
     3ca:	d8 2e       	mov	r13, r24
     3cc:	8e 81       	ldd	r24, Y+6	; 0x06
     3ce:	9f 81       	ldd	r25, Y+7	; 0x07
     3d0:	0e 94 12 08 	call	0x1024	; 0x1024 <atoi>
     3d4:	ec 81       	ldd	r30, Y+4	; 0x04
     3d6:	fd 81       	ldd	r31, Y+5	; 0x05
     3d8:	2c 2d       	mov	r18, r12
     3da:	4d 2d       	mov	r20, r13
     3dc:	68 2f       	mov	r22, r24
     3de:	80 81       	ld	r24, Z
     3e0:	0e 94 1d 01 	call	0x23a	; 0x23a <Data_CreateMove>
     3e4:	b7 01       	movw	r22, r14
     3e6:	0e 94 37 01 	call	0x26e	; 0x26e <Data_CreateListElement>
     3ea:	bc 01       	movw	r22, r24
     3ec:	c8 01       	movw	r24, r16
     3ee:	0e 94 58 01 	call	0x2b0	; 0x2b0 <Data_InsertElementToList>
	
	if (islastmove)
     3f2:	bb 20       	and	r11, r11
     3f4:	19 f0       	breq	.+6      	; 0x3fc <Data_InsertTaskToJob+0x96>
	{
		/* jeœli wstawiony do listy zosta³ ostatni ruch, to ustaw informacjê ¿e potrzebna jest nowa lista */
		NeedNewList = 1;
     3f6:	81 e0       	ldi	r24, 0x01	; 1
     3f8:	80 93 06 20 	sts	0x2006, r24	; 0x802006 <NeedNewList.3903>
	}

}
     3fc:	df 91       	pop	r29
     3fe:	cf 91       	pop	r28
     400:	1f 91       	pop	r17
     402:	0f 91       	pop	r16
     404:	ff 90       	pop	r15
     406:	ef 90       	pop	r14
     408:	df 90       	pop	r13
     40a:	cf 90       	pop	r12
     40c:	bf 90       	pop	r11
     40e:	08 95       	ret

00000410 <Frame_Init>:
/*----------------------------------------------------------------------------------------------------------------------*/

/*----------------------------------Definicje funkcji-------------------------------------------------------------------*/

frame_t *Frame_Init(frame_t *frame)
{
     410:	cf 93       	push	r28
     412:	df 93       	push	r29
	frame = (frame_t *)malloc(sizeof(frame_t));								/* alokacja pamiêci dla ramki				*/
     414:	80 e1       	ldi	r24, 0x10	; 16
     416:	90 e0       	ldi	r25, 0x00	; 0
     418:	0e 94 f1 06 	call	0xde2	; 0xde2 <malloc>
     41c:	ec 01       	movw	r28, r24
	frame->StartCode = (char *)malloc(sizeof(char) * RECEIVE_MAX_CHARS);	/* alokacja pamiêci na kodu startu  ramki	*/
     41e:	80 e1       	ldi	r24, 0x10	; 16
     420:	90 e0       	ldi	r25, 0x00	; 0
     422:	0e 94 f1 06 	call	0xde2	; 0xde2 <malloc>
     426:	88 83       	st	Y, r24
     428:	99 83       	std	Y+1, r25	; 0x01
	strcpy(frame->StartCode, "");											/* zawartoœæ pocz¹tkowa kodu startu  ramki	*/
     42a:	fc 01       	movw	r30, r24
     42c:	10 82       	st	Z, r1
	frame->FrameType = (char *)malloc(sizeof(char) * RECEIVE_MAX_CHARS);	/* alokacja pamiêci na typ ramki			*/
     42e:	80 e1       	ldi	r24, 0x10	; 16
     430:	90 e0       	ldi	r25, 0x00	; 0
     432:	0e 94 f1 06 	call	0xde2	; 0xde2 <malloc>
     436:	8a 83       	std	Y+2, r24	; 0x02
     438:	9b 83       	std	Y+3, r25	; 0x03
	strcpy(frame->FrameType, "");											/* zawartoœæ pocz¹tkowa typu ramki			*/
     43a:	fc 01       	movw	r30, r24
     43c:	10 82       	st	Z, r1
	frame->Data1 = (char *)malloc(sizeof(char) * RECEIVE_MAX_CHARS);		/* alokacja pamiêci na dane ramki			*/
     43e:	80 e1       	ldi	r24, 0x10	; 16
     440:	90 e0       	ldi	r25, 0x00	; 0
     442:	0e 94 f1 06 	call	0xde2	; 0xde2 <malloc>
     446:	8c 83       	std	Y+4, r24	; 0x04
     448:	9d 83       	std	Y+5, r25	; 0x05
	strcpy(frame->Data1, "");												/* zawartoœæ pocz¹tkowa danych ramki		*/
     44a:	fc 01       	movw	r30, r24
     44c:	10 82       	st	Z, r1
	frame->Data2 = (char *)malloc(sizeof(char) * RECEIVE_MAX_CHARS);		/* alokacja pamiêci na dane ramki			*/
     44e:	80 e1       	ldi	r24, 0x10	; 16
     450:	90 e0       	ldi	r25, 0x00	; 0
     452:	0e 94 f1 06 	call	0xde2	; 0xde2 <malloc>
     456:	8e 83       	std	Y+6, r24	; 0x06
     458:	9f 83       	std	Y+7, r25	; 0x07
	strcpy(frame->Data2, "");												/* zawartoœæ pocz¹tkowa danych ramki		*/
     45a:	fc 01       	movw	r30, r24
     45c:	10 82       	st	Z, r1
	frame->Data3 = (char *)malloc(sizeof(char) * RECEIVE_MAX_CHARS);		/* alokacja pamiêci na dane ramki			*/
     45e:	80 e1       	ldi	r24, 0x10	; 16
     460:	90 e0       	ldi	r25, 0x00	; 0
     462:	0e 94 f1 06 	call	0xde2	; 0xde2 <malloc>
     466:	88 87       	std	Y+8, r24	; 0x08
     468:	99 87       	std	Y+9, r25	; 0x09
	strcpy(frame->Data3, "");												/* zawartoœæ pocz¹tkowa danych ramki		*/
     46a:	fc 01       	movw	r30, r24
     46c:	10 82       	st	Z, r1
	frame->Data4 = (char *)malloc(sizeof(char) * RECEIVE_MAX_CHARS);		/* alokacja pamiêci na dane ramki			*/
     46e:	80 e1       	ldi	r24, 0x10	; 16
     470:	90 e0       	ldi	r25, 0x00	; 0
     472:	0e 94 f1 06 	call	0xde2	; 0xde2 <malloc>
     476:	8a 87       	std	Y+10, r24	; 0x0a
     478:	9b 87       	std	Y+11, r25	; 0x0b
	strcpy(frame->Data4, "");												/* zawartoœæ pocz¹tkowa danych ramki		*/
     47a:	fc 01       	movw	r30, r24
     47c:	10 82       	st	Z, r1
	frame->EndCode = (char *)malloc(sizeof(char) * RECEIVE_MAX_CHARS);		/* alokacja pamiêci na kod koñca ramki		*/
     47e:	80 e1       	ldi	r24, 0x10	; 16
     480:	90 e0       	ldi	r25, 0x00	; 0
     482:	0e 94 f1 06 	call	0xde2	; 0xde2 <malloc>
     486:	8e 87       	std	Y+14, r24	; 0x0e
     488:	9f 87       	std	Y+15, r25	; 0x0f
	strcpy(frame->EndCode, "");												/* zawartoœæ pocz¹tkowa kodu koñca ramki	*/
     48a:	fc 01       	movw	r30, r24
     48c:	10 82       	st	Z, r1
	return frame;
}
     48e:	ce 01       	movw	r24, r28
     490:	df 91       	pop	r29
     492:	cf 91       	pop	r28
     494:	08 95       	ret

00000496 <Frame_Fill>:

uint8_t Frame_Fill(buffer_t *buffer, frame_t *frame)
{
     496:	0f 93       	push	r16
     498:	1f 93       	push	r17
     49a:	cf 93       	push	r28
     49c:	df 93       	push	r29
     49e:	8c 01       	movw	r16, r24
     4a0:	eb 01       	movw	r28, r22
	/* Funkcja kopiuje dane z bufora do zmiennej typu frame i zwraca 1 gdy ramka jest OK lub 0 gdy ramka uszkodzona		*/
	
	strcpy(frame->StartCode, Buffer_GetString(buffer));						/* pobranie kodu ramki						*/
     4a2:	0e 94 82 04 	call	0x904	; 0x904 <Buffer_GetString>
     4a6:	bc 01       	movw	r22, r24
     4a8:	88 81       	ld	r24, Y
     4aa:	99 81       	ldd	r25, Y+1	; 0x01
     4ac:	0e 94 30 08 	call	0x1060	; 0x1060 <strcpy>
	if (!(strncmp(StartCode, frame->StartCode, 2)))							/* jeœli kod ramki jest poprawny to:		*/
     4b0:	68 81       	ld	r22, Y
     4b2:	79 81       	ldd	r23, Y+1	; 0x01
     4b4:	42 e0       	ldi	r20, 0x02	; 2
     4b6:	50 e0       	ldi	r21, 0x00	; 0
     4b8:	80 91 15 20 	lds	r24, 0x2015	; 0x802015 <StartCode>
     4bc:	90 91 16 20 	lds	r25, 0x2016	; 0x802016 <StartCode+0x1>
     4c0:	0e 94 37 08 	call	0x106e	; 0x106e <strncmp>
     4c4:	89 2b       	or	r24, r25
     4c6:	09 f0       	breq	.+2      	; 0x4ca <Frame_Fill+0x34>
     4c8:	4e c0       	rjmp	.+156    	; 0x566 <Frame_Fill+0xd0>
	{
		strcpy(frame->FrameType, Buffer_GetString(buffer));					/* pobierz typ ramki						*/
     4ca:	c8 01       	movw	r24, r16
     4cc:	0e 94 82 04 	call	0x904	; 0x904 <Buffer_GetString>
     4d0:	bc 01       	movw	r22, r24
     4d2:	8a 81       	ldd	r24, Y+2	; 0x02
     4d4:	9b 81       	ldd	r25, Y+3	; 0x03
     4d6:	0e 94 30 08 	call	0x1060	; 0x1060 <strcpy>
		strcpy(frame->Data1, Buffer_GetString(buffer));						/* pobierz pierwszy wiersz danych			*/
     4da:	c8 01       	movw	r24, r16
     4dc:	0e 94 82 04 	call	0x904	; 0x904 <Buffer_GetString>
     4e0:	bc 01       	movw	r22, r24
     4e2:	8c 81       	ldd	r24, Y+4	; 0x04
     4e4:	9d 81       	ldd	r25, Y+5	; 0x05
     4e6:	0e 94 30 08 	call	0x1060	; 0x1060 <strcpy>
		strcpy(frame->Data2, Buffer_GetString(buffer));						/* pobierz drugi wiersz danych				*/
     4ea:	c8 01       	movw	r24, r16
     4ec:	0e 94 82 04 	call	0x904	; 0x904 <Buffer_GetString>
     4f0:	bc 01       	movw	r22, r24
     4f2:	8e 81       	ldd	r24, Y+6	; 0x06
     4f4:	9f 81       	ldd	r25, Y+7	; 0x07
     4f6:	0e 94 30 08 	call	0x1060	; 0x1060 <strcpy>
		strcpy(frame->Data3, Buffer_GetString(buffer));						/* pobierz trzeci wiersz danych				*/
     4fa:	c8 01       	movw	r24, r16
     4fc:	0e 94 82 04 	call	0x904	; 0x904 <Buffer_GetString>
     500:	bc 01       	movw	r22, r24
     502:	88 85       	ldd	r24, Y+8	; 0x08
     504:	99 85       	ldd	r25, Y+9	; 0x09
     506:	0e 94 30 08 	call	0x1060	; 0x1060 <strcpy>
		strcpy(frame->Data4, Buffer_GetString(buffer));						/* pobierz czwarty wiersz danych			*/
     50a:	c8 01       	movw	r24, r16
     50c:	0e 94 82 04 	call	0x904	; 0x904 <Buffer_GetString>
     510:	bc 01       	movw	r22, r24
     512:	8a 85       	ldd	r24, Y+10	; 0x0a
     514:	9b 85       	ldd	r25, Y+11	; 0x0b
     516:	0e 94 30 08 	call	0x1060	; 0x1060 <strcpy>
		strcpy(frame->Data5, Buffer_GetString(buffer));						/* pobierz pi¹ty wiersz danych				*/
     51a:	c8 01       	movw	r24, r16
     51c:	0e 94 82 04 	call	0x904	; 0x904 <Buffer_GetString>
     520:	bc 01       	movw	r22, r24
     522:	8c 85       	ldd	r24, Y+12	; 0x0c
     524:	9d 85       	ldd	r25, Y+13	; 0x0d
     526:	0e 94 30 08 	call	0x1060	; 0x1060 <strcpy>
		strcpy(frame->EndCode, Buffer_GetString(buffer));					/* pobierz kod koñca ramki					*/
     52a:	c8 01       	movw	r24, r16
     52c:	0e 94 82 04 	call	0x904	; 0x904 <Buffer_GetString>
     530:	bc 01       	movw	r22, r24
     532:	8e 85       	ldd	r24, Y+14	; 0x0e
     534:	9f 85       	ldd	r25, Y+15	; 0x0f
     536:	0e 94 30 08 	call	0x1060	; 0x1060 <strcpy>
		if (!(strncmp(EndCode, frame->EndCode, 2)))							/* jeœli kod koñca ramki jest poprawny to:	*/
     53a:	6e 85       	ldd	r22, Y+14	; 0x0e
     53c:	7f 85       	ldd	r23, Y+15	; 0x0f
     53e:	42 e0       	ldi	r20, 0x02	; 2
     540:	50 e0       	ldi	r21, 0x00	; 0
     542:	80 91 13 20 	lds	r24, 0x2013	; 0x802013 <EndCode>
     546:	90 91 14 20 	lds	r25, 0x2014	; 0x802014 <EndCode+0x1>
     54a:	0e 94 37 08 	call	0x106e	; 0x106e <strncmp>
     54e:	89 2b       	or	r24, r25
     550:	29 f4       	brne	.+10     	; 0x55c <Frame_Fill+0xc6>
		{
			Buffer_Clear(buffer);											/* czyszczenie bufora						*/
     552:	c8 01       	movw	r24, r16
     554:	0e 94 b8 04 	call	0x970	; 0x970 <Buffer_Clear>
			return 1;														/* zwróæ 1 (odczyt OK)						*/													
     558:	81 e0       	ldi	r24, 0x01	; 1
     55a:	09 c0       	rjmp	.+18     	; 0x56e <Frame_Fill+0xd8>
		}
		else
		{
			Buffer_Clear(buffer);											/* czyszczenie bufora						*/
     55c:	c8 01       	movw	r24, r16
     55e:	0e 94 b8 04 	call	0x970	; 0x970 <Buffer_Clear>
			return 0;														/* jeœli kod koñca nie w³aœciwy to zwróæ 0	*/
     562:	80 e0       	ldi	r24, 0x00	; 0
     564:	04 c0       	rjmp	.+8      	; 0x56e <Frame_Fill+0xd8>
		}
	}
	else
	{
		Buffer_Clear(buffer);												/* czyszczenie bufora						*/
     566:	c8 01       	movw	r24, r16
     568:	0e 94 b8 04 	call	0x970	; 0x970 <Buffer_Clear>
		return 0;															/* jeœli kod startu nie w³aœciwy to zwróæ 0	*/
     56c:	80 e0       	ldi	r24, 0x00	; 0
	}
}
     56e:	df 91       	pop	r29
     570:	cf 91       	pop	r28
     572:	1f 91       	pop	r17
     574:	0f 91       	pop	r16
     576:	08 95       	ret

00000578 <Frame_TypeCheck>:

uint8_t Frame_TypeCheck(frame_t *frame)
{
     578:	cf 93       	push	r28
     57a:	df 93       	push	r29
	/* funkcja sprawdza jaki typ ramki zosta³ odebrany i zwraca liczbê która mu odpowiada				*/
	if (!(strncmp(FrameTypes[5], frame->FrameType, 3))) return 6;			/* jeœli typ ramki to: EJOB, zwróæ 6		*/	
     57c:	fc 01       	movw	r30, r24
     57e:	c2 81       	ldd	r28, Z+2	; 0x02
     580:	d3 81       	ldd	r29, Z+3	; 0x03
     582:	43 e0       	ldi	r20, 0x03	; 3
     584:	50 e0       	ldi	r21, 0x00	; 0
     586:	be 01       	movw	r22, r28
     588:	80 91 11 20 	lds	r24, 0x2011	; 0x802011 <FrameTypes+0xa>
     58c:	90 91 12 20 	lds	r25, 0x2012	; 0x802012 <FrameTypes+0xb>
     590:	0e 94 37 08 	call	0x106e	; 0x106e <strncmp>
     594:	89 2b       	or	r24, r25
     596:	71 f1       	breq	.+92     	; 0x5f4 <Frame_TypeCheck+0x7c>
	else if(!(strncmp(FrameTypes[4], frame->FrameType, 3))) return 5;		/* jeœli typ ramki to: JOB, zwróæ 5			*/
     598:	43 e0       	ldi	r20, 0x03	; 3
     59a:	50 e0       	ldi	r21, 0x00	; 0
     59c:	be 01       	movw	r22, r28
     59e:	80 91 0f 20 	lds	r24, 0x200F	; 0x80200f <FrameTypes+0x8>
     5a2:	90 91 10 20 	lds	r25, 0x2010	; 0x802010 <FrameTypes+0x9>
     5a6:	0e 94 37 08 	call	0x106e	; 0x106e <strncmp>
     5aa:	89 2b       	or	r24, r25
     5ac:	29 f1       	breq	.+74     	; 0x5f8 <Frame_TypeCheck+0x80>
	else if(!(strncmp(FrameTypes[3], frame->FrameType, 3))) return 4;		/* jeœli typ ramki to: ETASK, zwróæ 4		*/
     5ae:	43 e0       	ldi	r20, 0x03	; 3
     5b0:	50 e0       	ldi	r21, 0x00	; 0
     5b2:	be 01       	movw	r22, r28
     5b4:	80 91 0d 20 	lds	r24, 0x200D	; 0x80200d <FrameTypes+0x6>
     5b8:	90 91 0e 20 	lds	r25, 0x200E	; 0x80200e <FrameTypes+0x7>
     5bc:	0e 94 37 08 	call	0x106e	; 0x106e <strncmp>
     5c0:	89 2b       	or	r24, r25
     5c2:	e1 f0       	breq	.+56     	; 0x5fc <Frame_TypeCheck+0x84>
	else if(!(strncmp(FrameTypes[2], frame->FrameType, 3))) return 3;		/* jeœli typ ramki to: TASK, zwróæ 3		*/
     5c4:	43 e0       	ldi	r20, 0x03	; 3
     5c6:	50 e0       	ldi	r21, 0x00	; 0
     5c8:	be 01       	movw	r22, r28
     5ca:	80 91 0b 20 	lds	r24, 0x200B	; 0x80200b <FrameTypes+0x4>
     5ce:	90 91 0c 20 	lds	r25, 0x200C	; 0x80200c <FrameTypes+0x5>
     5d2:	0e 94 37 08 	call	0x106e	; 0x106e <strncmp>
     5d6:	89 2b       	or	r24, r25
     5d8:	99 f0       	breq	.+38     	; 0x600 <Frame_TypeCheck+0x88>
	else if(!(strncmp(FrameTypes[1], frame->FrameType, 3))) return 2;		/* jeœli typ ramki to: MOVE, zwróæ 2		*/
     5da:	43 e0       	ldi	r20, 0x03	; 3
     5dc:	50 e0       	ldi	r21, 0x00	; 0
     5de:	be 01       	movw	r22, r28
     5e0:	80 91 09 20 	lds	r24, 0x2009	; 0x802009 <FrameTypes+0x2>
     5e4:	90 91 0a 20 	lds	r25, 0x200A	; 0x80200a <FrameTypes+0x3>
     5e8:	0e 94 37 08 	call	0x106e	; 0x106e <strncmp>
     5ec:	89 2b       	or	r24, r25
     5ee:	51 f4       	brne	.+20     	; 0x604 <Frame_TypeCheck+0x8c>
     5f0:	82 e0       	ldi	r24, 0x02	; 2
     5f2:	09 c0       	rjmp	.+18     	; 0x606 <Frame_TypeCheck+0x8e>
}

uint8_t Frame_TypeCheck(frame_t *frame)
{
	/* funkcja sprawdza jaki typ ramki zosta³ odebrany i zwraca liczbê która mu odpowiada				*/
	if (!(strncmp(FrameTypes[5], frame->FrameType, 3))) return 6;			/* jeœli typ ramki to: EJOB, zwróæ 6		*/	
     5f4:	86 e0       	ldi	r24, 0x06	; 6
     5f6:	07 c0       	rjmp	.+14     	; 0x606 <Frame_TypeCheck+0x8e>
	else if(!(strncmp(FrameTypes[4], frame->FrameType, 3))) return 5;		/* jeœli typ ramki to: JOB, zwróæ 5			*/
     5f8:	85 e0       	ldi	r24, 0x05	; 5
     5fa:	05 c0       	rjmp	.+10     	; 0x606 <Frame_TypeCheck+0x8e>
	else if(!(strncmp(FrameTypes[3], frame->FrameType, 3))) return 4;		/* jeœli typ ramki to: ETASK, zwróæ 4		*/
     5fc:	84 e0       	ldi	r24, 0x04	; 4
     5fe:	03 c0       	rjmp	.+6      	; 0x606 <Frame_TypeCheck+0x8e>
	else if(!(strncmp(FrameTypes[2], frame->FrameType, 3))) return 3;		/* jeœli typ ramki to: TASK, zwróæ 3		*/
     600:	83 e0       	ldi	r24, 0x03	; 3
     602:	01 c0       	rjmp	.+2      	; 0x606 <Frame_TypeCheck+0x8e>
	else if(!(strncmp(FrameTypes[1], frame->FrameType, 3))) return 2;		/* jeœli typ ramki to: MOVE, zwróæ 2		*/
	else return 1;															/* jeœli typ ramki to: STATUS, zwróæ 1		*/
     604:	81 e0       	ldi	r24, 0x01	; 1
}
     606:	df 91       	pop	r29
     608:	cf 91       	pop	r28
     60a:	08 95       	ret

0000060c <Frame_StatusCheck>:

uint8_t Frame_StatusCheck(char *status)
{
	if (!(strncmp(status, "1", 1))) return 1;								/* nast¹pi przesy³ danych					*/
     60c:	fc 01       	movw	r30, r24
     60e:	80 81       	ld	r24, Z
     610:	81 33       	cpi	r24, 0x31	; 49
     612:	31 f0       	breq	.+12     	; 0x620 <Frame_StatusCheck+0x14>
	else if (!(strncmp(status, "2", 1))) return 2;							/* nast¹pi pod³¹czenie sterownika			*/
     614:	82 33       	cpi	r24, 0x32	; 50
     616:	31 f0       	breq	.+12     	; 0x624 <Frame_StatusCheck+0x18>
	else if (!(strncmp(status, "3", 1))) return 3;							/* nast¹pi od³¹czenie sterownika			*/
     618:	83 33       	cpi	r24, 0x33	; 51
     61a:	31 f4       	brne	.+12     	; 0x628 <Frame_StatusCheck+0x1c>
     61c:	83 e0       	ldi	r24, 0x03	; 3
     61e:	08 95       	ret
	else return 1;															/* jeœli typ ramki to: STATUS, zwróæ 1		*/
}

uint8_t Frame_StatusCheck(char *status)
{
	if (!(strncmp(status, "1", 1))) return 1;								/* nast¹pi przesy³ danych					*/
     620:	81 e0       	ldi	r24, 0x01	; 1
     622:	08 95       	ret
	else if (!(strncmp(status, "2", 1))) return 2;							/* nast¹pi pod³¹czenie sterownika			*/
     624:	82 e0       	ldi	r24, 0x02	; 2
     626:	08 95       	ret
	else if (!(strncmp(status, "3", 1))) return 3;							/* nast¹pi od³¹czenie sterownika			*/
	else return 99;															/* nieznany status							*/
     628:	83 e6       	ldi	r24, 0x63	; 99
}
     62a:	08 95       	ret

0000062c <HC05_SendString>:
	return module;														/* zwrócenie wskaŸnika na zainicjowany modu³			*/
}

void HC05_SendString(char *txt)
{
	Usart_SendString(txt);												/* wys³anie tekstu przez bluetooth						*/
     62c:	0e 94 1f 05 	call	0xa3e	; 0xa3e <Usart_SendString>
     630:	08 95       	ret

00000632 <HC05_SendStatus>:
		}
	}
}

uint8_t HC05_SendStatus(char *statusstate)
{
     632:	cf 93       	push	r28
     634:	df 93       	push	r29
     636:	ec 01       	movw	r28, r24
	Usart_SendString("SF\n");
     638:	84 e3       	ldi	r24, 0x34	; 52
     63a:	90 e2       	ldi	r25, 0x20	; 32
     63c:	0e 94 1f 05 	call	0xa3e	; 0xa3e <Usart_SendString>
	#else
		//round up by default
		__ticks_dc = (uint32_t)(ceil(fabs(__tmp)));
	#endif

	__builtin_avr_delay_cycles(__ticks_dc);
     640:	8f eb       	ldi	r24, 0xBF	; 191
     642:	9a ed       	ldi	r25, 0xDA	; 218
     644:	01 97       	sbiw	r24, 0x01	; 1
     646:	f1 f7       	brne	.-4      	; 0x644 <HC05_SendStatus+0x12>
     648:	00 c0       	rjmp	.+0      	; 0x64a <HC05_SendStatus+0x18>
     64a:	00 00       	nop
	_delay_ms(7);
	Usart_SendString("STATUS\n");
     64c:	88 e3       	ldi	r24, 0x38	; 56
     64e:	90 e2       	ldi	r25, 0x20	; 32
     650:	0e 94 1f 05 	call	0xa3e	; 0xa3e <Usart_SendString>
     654:	9f ef       	ldi	r25, 0xFF	; 255
     656:	28 ea       	ldi	r18, 0xA8	; 168
     658:	81 e0       	ldi	r24, 0x01	; 1
     65a:	91 50       	subi	r25, 0x01	; 1
     65c:	20 40       	sbci	r18, 0x00	; 0
     65e:	80 40       	sbci	r24, 0x00	; 0
     660:	e1 f7       	brne	.-8      	; 0x65a <HC05_SendStatus+0x28>
     662:	00 c0       	rjmp	.+0      	; 0x664 <HC05_SendStatus+0x32>
     664:	00 00       	nop
	_delay_ms(17);
	Usart_SendString(statusstate);
     666:	ce 01       	movw	r24, r28
     668:	0e 94 1f 05 	call	0xa3e	; 0xa3e <Usart_SendString>
     66c:	8f eb       	ldi	r24, 0xBF	; 191
     66e:	9a ed       	ldi	r25, 0xDA	; 218
     670:	01 97       	sbiw	r24, 0x01	; 1
     672:	f1 f7       	brne	.-4      	; 0x670 <HC05_SendStatus+0x3e>
     674:	00 c0       	rjmp	.+0      	; 0x676 <HC05_SendStatus+0x44>
     676:	00 00       	nop
	_delay_ms(7);
	Usart_SendString("0\n");
     678:	80 e4       	ldi	r24, 0x40	; 64
     67a:	90 e2       	ldi	r25, 0x20	; 32
     67c:	0e 94 1f 05 	call	0xa3e	; 0xa3e <Usart_SendString>
     680:	8f eb       	ldi	r24, 0xBF	; 191
     682:	9a ed       	ldi	r25, 0xDA	; 218
     684:	01 97       	sbiw	r24, 0x01	; 1
     686:	f1 f7       	brne	.-4      	; 0x684 <HC05_SendStatus+0x52>
     688:	00 c0       	rjmp	.+0      	; 0x68a <HC05_SendStatus+0x58>
     68a:	00 00       	nop
	_delay_ms(7);
	Usart_SendString("0\n");
     68c:	80 e4       	ldi	r24, 0x40	; 64
     68e:	90 e2       	ldi	r25, 0x20	; 32
     690:	0e 94 1f 05 	call	0xa3e	; 0xa3e <Usart_SendString>
     694:	8f eb       	ldi	r24, 0xBF	; 191
     696:	9a ed       	ldi	r25, 0xDA	; 218
     698:	01 97       	sbiw	r24, 0x01	; 1
     69a:	f1 f7       	brne	.-4      	; 0x698 <HC05_SendStatus+0x66>
     69c:	00 c0       	rjmp	.+0      	; 0x69e <HC05_SendStatus+0x6c>
     69e:	00 00       	nop
	_delay_ms(7);
	Usart_SendString("0\n");
     6a0:	80 e4       	ldi	r24, 0x40	; 64
     6a2:	90 e2       	ldi	r25, 0x20	; 32
     6a4:	0e 94 1f 05 	call	0xa3e	; 0xa3e <Usart_SendString>
     6a8:	8f eb       	ldi	r24, 0xBF	; 191
     6aa:	9a ed       	ldi	r25, 0xDA	; 218
     6ac:	01 97       	sbiw	r24, 0x01	; 1
     6ae:	f1 f7       	brne	.-4      	; 0x6ac <HC05_SendStatus+0x7a>
     6b0:	00 c0       	rjmp	.+0      	; 0x6b2 <HC05_SendStatus+0x80>
     6b2:	00 00       	nop
	_delay_ms(7);
	Usart_SendString("0\n");
     6b4:	80 e4       	ldi	r24, 0x40	; 64
     6b6:	90 e2       	ldi	r25, 0x20	; 32
     6b8:	0e 94 1f 05 	call	0xa3e	; 0xa3e <Usart_SendString>
     6bc:	8f eb       	ldi	r24, 0xBF	; 191
     6be:	9a ed       	ldi	r25, 0xDA	; 218
     6c0:	01 97       	sbiw	r24, 0x01	; 1
     6c2:	f1 f7       	brne	.-4      	; 0x6c0 <HC05_SendStatus+0x8e>
     6c4:	00 c0       	rjmp	.+0      	; 0x6c6 <HC05_SendStatus+0x94>
     6c6:	00 00       	nop
	_delay_ms(7);
	Usart_SendString("EF\n");
     6c8:	83 e4       	ldi	r24, 0x43	; 67
     6ca:	90 e2       	ldi	r25, 0x20	; 32
     6cc:	0e 94 1f 05 	call	0xa3e	; 0xa3e <Usart_SendString>
     6d0:	8f eb       	ldi	r24, 0xBF	; 191
     6d2:	9a ed       	ldi	r25, 0xDA	; 218
     6d4:	01 97       	sbiw	r24, 0x01	; 1
     6d6:	f1 f7       	brne	.-4      	; 0x6d4 <HC05_SendStatus+0xa2>
     6d8:	00 c0       	rjmp	.+0      	; 0x6da <HC05_SendStatus+0xa8>
     6da:	00 00       	nop
	_delay_ms(7);
	return 1;
}
     6dc:	81 e0       	ldi	r24, 0x01	; 1
     6de:	df 91       	pop	r29
     6e0:	cf 91       	pop	r28
     6e2:	08 95       	ret

000006e4 <HC05_Read>:
	Usart_SendString(txt);												/* wys³anie tekstu przez bluetooth						*/
}

void HC05_Read(void)
{
	if (ReceivingBuffer->IsFull == TRUE)								/* jeœli bufor odbiorczy pe³ny, to:						*/
     6e4:	e0 91 5e 20 	lds	r30, 0x205E	; 0x80205e <ReceivingBuffer>
     6e8:	f0 91 5f 20 	lds	r31, 0x205F	; 0x80205f <ReceivingBuffer+0x1>
     6ec:	85 89       	ldd	r24, Z+21	; 0x15
     6ee:	80 ff       	sbrs	r24, 0
     6f0:	80 c0       	rjmp	.+256    	; 0x7f2 <HC05_Read+0x10e>
	{
		if (Frame_Fill(ReceivingBuffer, ReceivingFrame))
     6f2:	60 91 5a 20 	lds	r22, 0x205A	; 0x80205a <__data_end>
     6f6:	70 91 5b 20 	lds	r23, 0x205B	; 0x80205b <__data_end+0x1>
     6fa:	cf 01       	movw	r24, r30
     6fc:	0e 94 4b 02 	call	0x496	; 0x496 <Frame_Fill>
     700:	88 23       	and	r24, r24
     702:	09 f4       	brne	.+2      	; 0x706 <HC05_Read+0x22>
     704:	72 c0       	rjmp	.+228    	; 0x7ea <HC05_Read+0x106>
		{
			switch(Frame_TypeCheck(ReceivingFrame))
     706:	80 91 5a 20 	lds	r24, 0x205A	; 0x80205a <__data_end>
     70a:	90 91 5b 20 	lds	r25, 0x205B	; 0x80205b <__data_end+0x1>
     70e:	0e 94 bc 02 	call	0x578	; 0x578 <Frame_TypeCheck>
     712:	83 30       	cpi	r24, 0x03	; 3
     714:	e1 f1       	breq	.+120    	; 0x78e <HC05_Read+0xaa>
     716:	28 f4       	brcc	.+10     	; 0x722 <HC05_Read+0x3e>
     718:	81 30       	cpi	r24, 0x01	; 1
     71a:	61 f0       	breq	.+24     	; 0x734 <HC05_Read+0x50>
     71c:	82 30       	cpi	r24, 0x02	; 2
     71e:	41 f1       	breq	.+80     	; 0x770 <HC05_Read+0x8c>
     720:	08 95       	ret
     722:	85 30       	cpi	r24, 0x05	; 5
     724:	09 f4       	brne	.+2      	; 0x728 <HC05_Read+0x44>
     726:	53 c0       	rjmp	.+166    	; 0x7ce <HC05_Read+0xea>
     728:	08 f4       	brcc	.+2      	; 0x72c <HC05_Read+0x48>
     72a:	41 c0       	rjmp	.+130    	; 0x7ae <HC05_Read+0xca>
     72c:	86 30       	cpi	r24, 0x06	; 6
     72e:	09 f4       	brne	.+2      	; 0x732 <HC05_Read+0x4e>
     730:	55 c0       	rjmp	.+170    	; 0x7dc <HC05_Read+0xf8>
     732:	08 95       	ret
			{
				case 1:
					switch(Frame_StatusCheck(ReceivingFrame->Data1))
     734:	e0 91 5a 20 	lds	r30, 0x205A	; 0x80205a <__data_end>
     738:	f0 91 5b 20 	lds	r31, 0x205B	; 0x80205b <__data_end+0x1>
     73c:	84 81       	ldd	r24, Z+4	; 0x04
     73e:	95 81       	ldd	r25, Z+5	; 0x05
     740:	0e 94 06 03 	call	0x60c	; 0x60c <Frame_StatusCheck>
     744:	82 30       	cpi	r24, 0x02	; 2
     746:	51 f0       	breq	.+20     	; 0x75c <HC05_Read+0x78>
     748:	83 30       	cpi	r24, 0x03	; 3
     74a:	69 f0       	breq	.+26     	; 0x766 <HC05_Read+0x82>
     74c:	81 30       	cpi	r24, 0x01	; 1
     74e:	09 f0       	breq	.+2      	; 0x752 <HC05_Read+0x6e>
     750:	50 c0       	rjmp	.+160    	; 0x7f2 <HC05_Read+0x10e>
					{
						case 1:
							HC05_SendStatus("1\n");
     752:	87 e4       	ldi	r24, 0x47	; 71
     754:	90 e2       	ldi	r25, 0x20	; 32
     756:	0e 94 19 03 	call	0x632	; 0x632 <HC05_SendStatus>
							break;
     75a:	08 95       	ret
						case 2:
							HC05_SendStatus("2\n");
     75c:	8a e4       	ldi	r24, 0x4A	; 74
     75e:	90 e2       	ldi	r25, 0x20	; 32
     760:	0e 94 19 03 	call	0x632	; 0x632 <HC05_SendStatus>
							break;
     764:	08 95       	ret
						case 3:
							HC05_SendStatus("3\n");
     766:	8d e4       	ldi	r24, 0x4D	; 77
     768:	90 e2       	ldi	r25, 0x20	; 32
     76a:	0e 94 19 03 	call	0x632	; 0x632 <HC05_SendStatus>
							//Sys_Reset();
							break;
     76e:	08 95       	ret
						default:
							break;
					}
					break;
				case 2:
					Data_InsertMoveToJob(Job, ReceivingFrame);
     770:	60 91 5a 20 	lds	r22, 0x205A	; 0x80205a <__data_end>
     774:	70 91 5b 20 	lds	r23, 0x205B	; 0x80205b <__data_end+0x1>
     778:	80 91 64 20 	lds	r24, 0x2064	; 0x802064 <Job>
     77c:	90 91 65 20 	lds	r25, 0x2065	; 0x802065 <Job+0x1>
     780:	0e 94 76 01 	call	0x2ec	; 0x2ec <Data_InsertMoveToJob>
					HC05_SendStatus("1\n");
     784:	87 e4       	ldi	r24, 0x47	; 71
     786:	90 e2       	ldi	r25, 0x20	; 32
     788:	0e 94 19 03 	call	0x632	; 0x632 <HC05_SendStatus>
					break;
     78c:	08 95       	ret
				case 3:
					Data_InsertTaskToJob(Job, ReceivingFrame, 0);
     78e:	60 91 5a 20 	lds	r22, 0x205A	; 0x80205a <__data_end>
     792:	70 91 5b 20 	lds	r23, 0x205B	; 0x80205b <__data_end+0x1>
     796:	40 e0       	ldi	r20, 0x00	; 0
     798:	80 91 64 20 	lds	r24, 0x2064	; 0x802064 <Job>
     79c:	90 91 65 20 	lds	r25, 0x2065	; 0x802065 <Job+0x1>
     7a0:	0e 94 b3 01 	call	0x366	; 0x366 <Data_InsertTaskToJob>
					HC05_SendStatus("1\n");
     7a4:	87 e4       	ldi	r24, 0x47	; 71
     7a6:	90 e2       	ldi	r25, 0x20	; 32
     7a8:	0e 94 19 03 	call	0x632	; 0x632 <HC05_SendStatus>
					break;
     7ac:	08 95       	ret
				case 4:
					Data_InsertTaskToJob(Job, ReceivingFrame, 1);
     7ae:	60 91 5a 20 	lds	r22, 0x205A	; 0x80205a <__data_end>
     7b2:	70 91 5b 20 	lds	r23, 0x205B	; 0x80205b <__data_end+0x1>
     7b6:	41 e0       	ldi	r20, 0x01	; 1
     7b8:	80 91 64 20 	lds	r24, 0x2064	; 0x802064 <Job>
     7bc:	90 91 65 20 	lds	r25, 0x2065	; 0x802065 <Job+0x1>
     7c0:	0e 94 b3 01 	call	0x366	; 0x366 <Data_InsertTaskToJob>
					HC05_SendStatus("1\n");
     7c4:	87 e4       	ldi	r24, 0x47	; 71
     7c6:	90 e2       	ldi	r25, 0x20	; 32
     7c8:	0e 94 19 03 	call	0x632	; 0x632 <HC05_SendStatus>
					break;
     7cc:	08 95       	ret
				case 5:
					HC05_SendStatus("4\n");
     7ce:	80 e5       	ldi	r24, 0x50	; 80
     7d0:	90 e2       	ldi	r25, 0x20	; 32
     7d2:	0e 94 19 03 	call	0x632	; 0x632 <HC05_SendStatus>
					Work_RunRobot();
     7d6:	0e 94 c4 06 	call	0xd88	; 0xd88 <Work_RunRobot>
					break;
     7da:	08 95       	ret
				case 6:
					HC05_SendStatus("5\n");
     7dc:	83 e5       	ldi	r24, 0x53	; 83
     7de:	90 e2       	ldi	r25, 0x20	; 32
     7e0:	0e 94 19 03 	call	0x632	; 0x632 <HC05_SendStatus>
					Work_StopRobot();
     7e4:	0e 94 c5 06 	call	0xd8a	; 0xd8a <Work_StopRobot>
					break;
     7e8:	08 95       	ret
					break;
			}
		} 
		else
		{
			HC05_SendStatus("99\n");
     7ea:	86 e5       	ldi	r24, 0x56	; 86
     7ec:	90 e2       	ldi	r25, 0x20	; 32
     7ee:	0e 94 19 03 	call	0x632	; 0x632 <HC05_SendStatus>
     7f2:	08 95       	ret

000007f4 <HC05_Init>:
/*------------------------------------------------------------------------------------------------------------------------------*/

/*-------------------------------------------Definicje funkcji------------------------------------------------------------------*/

bluetooth_t *HC05_Init(bluetooth_t *module)
{
     7f4:	cf 93       	push	r28
     7f6:	df 93       	push	r29
	module = (bluetooth_t *)malloc(sizeof(bluetooth_t));				/* alokacja pamiêci dla modu³u bluetooth				*/
     7f8:	86 e0       	ldi	r24, 0x06	; 6
     7fa:	90 e0       	ldi	r25, 0x00	; 0
     7fc:	0e 94 f1 06 	call	0xde2	; 0xde2 <malloc>
     800:	ec 01       	movw	r28, r24
	ReceivingBuffer = Buffer_Init(ReceivingBuffer, RECEIVE_MAX_CHARS);	/*inicjalizacja bufora odbiorczego						*/
     802:	60 e1       	ldi	r22, 0x10	; 16
     804:	80 91 5e 20 	lds	r24, 0x205E	; 0x80205e <ReceivingBuffer>
     808:	90 91 5f 20 	lds	r25, 0x205F	; 0x80205f <ReceivingBuffer+0x1>
     80c:	0e 94 2e 04 	call	0x85c	; 0x85c <Buffer_Init>
     810:	80 93 5e 20 	sts	0x205E, r24	; 0x80205e <ReceivingBuffer>
     814:	90 93 5f 20 	sts	0x205F, r25	; 0x80205f <ReceivingBuffer+0x1>
		Usart_Init(&USARTD1, &PORTD, PIN7_bp, PIN6_bp);					/* inicjalizacja sprzêtowego uart'u						*/
     818:	26 e0       	ldi	r18, 0x06	; 6
     81a:	47 e0       	ldi	r20, 0x07	; 7
     81c:	60 e6       	ldi	r22, 0x60	; 96
     81e:	76 e0       	ldi	r23, 0x06	; 6
     820:	80 eb       	ldi	r24, 0xB0	; 176
     822:	99 e0       	ldi	r25, 0x09	; 9
     824:	0e 94 d8 04 	call	0x9b0	; 0x9b0 <Usart_Init>
		//Usart_Init(&USARTD0, &PORTD, PIN3_bp, PIN2_bp);					/* inicjalizacja sprzêtowego uart'u						*/
		
	ReceivingFrame = Frame_Init(ReceivingFrame);						/* inicjalizacja obs³ugi ramek danych					*/
     828:	80 91 5a 20 	lds	r24, 0x205A	; 0x80205a <__data_end>
     82c:	90 91 5b 20 	lds	r25, 0x205B	; 0x80205b <__data_end+0x1>
     830:	0e 94 08 02 	call	0x410	; 0x410 <Frame_Init>
     834:	80 93 5a 20 	sts	0x205A, r24	; 0x80205a <__data_end>
     838:	90 93 5b 20 	sts	0x205B, r25	; 0x80205b <__data_end+0x1>
	module->Read = &HC05_Read;											/* ustawienie wskaŸnika na funkcjê odbiorcz¹			*/
     83c:	82 e7       	ldi	r24, 0x72	; 114
     83e:	93 e0       	ldi	r25, 0x03	; 3
     840:	8c 83       	std	Y+4, r24	; 0x04
     842:	9d 83       	std	Y+5, r25	; 0x05
	module->SendString = &HC05_SendString;								/* ustawienie wskaŸnika na funkcjê wysy³aj¹c¹ tekst		*/
     844:	86 e1       	ldi	r24, 0x16	; 22
     846:	93 e0       	ldi	r25, 0x03	; 3
     848:	88 83       	st	Y, r24
     84a:	99 83       	std	Y+1, r25	; 0x01
	module->SendStatus = &HC05_SendStatus;								/* ustawienia wskaŸnika na funkcjê wysy³aj¹c¹ status	*/
     84c:	89 e1       	ldi	r24, 0x19	; 25
     84e:	93 e0       	ldi	r25, 0x03	; 3
     850:	8a 83       	std	Y+2, r24	; 0x02
     852:	9b 83       	std	Y+3, r25	; 0x03
	
	return module;														/* zwrócenie wskaŸnika na zainicjowany modu³			*/
}
     854:	ce 01       	movw	r24, r28
     856:	df 91       	pop	r29
     858:	cf 91       	pop	r28
     85a:	08 95       	ret

0000085c <Buffer_Init>:


/*--------------------------------Definicje funkcji-----------------------------------------------------------------------------*/

buffer_t *Buffer_Init(buffer_t *buffer, uint8_t maxchars)
{
     85c:	ef 92       	push	r14
     85e:	ff 92       	push	r15
     860:	0f 93       	push	r16
     862:	1f 93       	push	r17
     864:	cf 93       	push	r28
     866:	df 93       	push	r29
     868:	06 2f       	mov	r16, r22
	
	buffer = (buffer_t *)malloc(sizeof(buffer_t));								/* alokacja pamiêci dla bufora											*/
     86a:	86 e1       	ldi	r24, 0x16	; 22
     86c:	90 e0       	ldi	r25, 0x00	; 0
     86e:	0e 94 f1 06 	call	0xde2	; 0xde2 <malloc>
     872:	7c 01       	movw	r14, r24
	for (uint8_t i = 0; i < BUFFER_SIZE; i++)
     874:	10 e0       	ldi	r17, 0x00	; 0
     876:	0f c0       	rjmp	.+30     	; 0x896 <Buffer_Init+0x3a>
	{
		buffer->Strings[i] = (char *)malloc(sizeof(char) * maxchars);			/* alokacja pamiêci dla elementów bufora								*/
     878:	c1 2f       	mov	r28, r17
     87a:	d0 e0       	ldi	r29, 0x00	; 0
     87c:	80 2f       	mov	r24, r16
     87e:	90 e0       	ldi	r25, 0x00	; 0
     880:	0e 94 f1 06 	call	0xde2	; 0xde2 <malloc>
     884:	cc 0f       	add	r28, r28
     886:	dd 1f       	adc	r29, r29
     888:	ce 0d       	add	r28, r14
     88a:	df 1d       	adc	r29, r15
     88c:	88 83       	st	Y, r24
     88e:	99 83       	std	Y+1, r25	; 0x01
		strcpy(buffer->Strings[i], "");											/* wype³nienie elementów bufora pustymi znakami							*/
     890:	fc 01       	movw	r30, r24
     892:	10 82       	st	Z, r1

buffer_t *Buffer_Init(buffer_t *buffer, uint8_t maxchars)
{
	
	buffer = (buffer_t *)malloc(sizeof(buffer_t));								/* alokacja pamiêci dla bufora											*/
	for (uint8_t i = 0; i < BUFFER_SIZE; i++)
     894:	1f 5f       	subi	r17, 0xFF	; 255
     896:	19 30       	cpi	r17, 0x09	; 9
     898:	78 f3       	brcs	.-34     	; 0x878 <Buffer_Init+0x1c>
	{
		buffer->Strings[i] = (char *)malloc(sizeof(char) * maxchars);			/* alokacja pamiêci dla elementów bufora								*/
		strcpy(buffer->Strings[i], "");											/* wype³nienie elementów bufora pustymi znakami							*/
	}
	buffer->DumyString = (char *)malloc(sizeof(char) * maxchars);				/* alokacja pamiêci dla ³añcucha pomocniczego							*/
     89a:	80 2f       	mov	r24, r16
     89c:	90 e0       	ldi	r25, 0x00	; 0
     89e:	0e 94 f1 06 	call	0xde2	; 0xde2 <malloc>
     8a2:	f7 01       	movw	r30, r14
     8a4:	82 8b       	std	Z+18, r24	; 0x12
     8a6:	93 8b       	std	Z+19, r25	; 0x13
	strcpy(buffer->DumyString, "");												/* wype³nienie ³añcucha pomocniczego pustymi znakami					*/
     8a8:	fc 01       	movw	r30, r24
     8aa:	10 82       	st	Z, r1
	buffer->Count = 0;															/* zerowanie licznika elementów											*/
     8ac:	f7 01       	movw	r30, r14
     8ae:	14 8a       	std	Z+20, r1	; 0x14
	buffer->IsFull = 0;															/* zerowanie flagi nape³nienia bufora									*/
     8b0:	85 89       	ldd	r24, Z+21	; 0x15
	buffer->IsEmpty = 1;														/* ustawienie flagi informuj¹cej ¿e bufor jest pusty					*/
     8b2:	8e 7f       	andi	r24, 0xFE	; 254
     8b4:	82 60       	ori	r24, 0x02	; 2
     8b6:	85 8b       	std	Z+21, r24	; 0x15
	return buffer;																/* zwrócenie zainicjalizowanego bufora									*/
}
     8b8:	c7 01       	movw	r24, r14
     8ba:	df 91       	pop	r29
     8bc:	cf 91       	pop	r28
     8be:	1f 91       	pop	r17
     8c0:	0f 91       	pop	r16
     8c2:	ff 90       	pop	r15
     8c4:	ef 90       	pop	r14
     8c6:	08 95       	ret

000008c8 <Buffer_InsertString>:

void Buffer_InsertString(buffer_t *buffer, char *str)
{
     8c8:	cf 93       	push	r28
     8ca:	df 93       	push	r29
     8cc:	ec 01       	movw	r28, r24
	if (buffer->Count < BUFFER_SIZE)											/* jeœli licznik elementów bufora mniejszy ni¿ rozmiar bufora to :		*/
     8ce:	ec 89       	ldd	r30, Y+20	; 0x14
     8d0:	e9 30       	cpi	r30, 0x09	; 9
     8d2:	60 f4       	brcc	.+24     	; 0x8ec <Buffer_InsertString+0x24>
	{
		strcpy(buffer->Strings[buffer->Count++], str);							/* dodaj element do bufora												*/
     8d4:	81 e0       	ldi	r24, 0x01	; 1
     8d6:	8e 0f       	add	r24, r30
     8d8:	8c 8b       	std	Y+20, r24	; 0x14
     8da:	f0 e0       	ldi	r31, 0x00	; 0
     8dc:	ee 0f       	add	r30, r30
     8de:	ff 1f       	adc	r31, r31
     8e0:	ec 0f       	add	r30, r28
     8e2:	fd 1f       	adc	r31, r29
     8e4:	80 81       	ld	r24, Z
     8e6:	91 81       	ldd	r25, Z+1	; 0x01
     8e8:	0e 94 30 08 	call	0x1060	; 0x1060 <strcpy>
	}
	buffer->IsEmpty = 0;														/* zerowanie flagi informuj¹cej ¿e bufor jest pusty						*/
     8ec:	8d 89       	ldd	r24, Y+21	; 0x15
     8ee:	8d 7f       	andi	r24, 0xFD	; 253
     8f0:	8d 8b       	std	Y+21, r24	; 0x15
	if (buffer->Count == BUFFER_SIZE - 1) buffer->IsFull = 1;					/* ustawienie flagi informuj¹cej ¿e bufor jest pe³ny					*/
     8f2:	8c 89       	ldd	r24, Y+20	; 0x14
     8f4:	88 30       	cpi	r24, 0x08	; 8
     8f6:	19 f4       	brne	.+6      	; 0x8fe <Buffer_InsertString+0x36>
     8f8:	8d 89       	ldd	r24, Y+21	; 0x15
     8fa:	81 60       	ori	r24, 0x01	; 1
     8fc:	8d 8b       	std	Y+21, r24	; 0x15
}
     8fe:	df 91       	pop	r29
     900:	cf 91       	pop	r28
     902:	08 95       	ret

00000904 <Buffer_GetString>:

char *Buffer_GetString(buffer_t *buffer)
{
     904:	1f 93       	push	r17
     906:	cf 93       	push	r28
     908:	df 93       	push	r29
     90a:	ec 01       	movw	r28, r24
	strcpy(buffer->DumyString, buffer->Strings[0]);								/* kopiowanie pierwszego elementu bufora do zmiennej pomocniczej		*/
     90c:	68 81       	ld	r22, Y
     90e:	79 81       	ldd	r23, Y+1	; 0x01
     910:	8a 89       	ldd	r24, Y+18	; 0x12
     912:	9b 89       	ldd	r25, Y+19	; 0x13
     914:	0e 94 30 08 	call	0x1060	; 0x1060 <strcpy>
	for (uint8_t i = 0; i < buffer->Count; i++)									/* przesuwanie elementów buforze										*/
     918:	10 e0       	ldi	r17, 0x00	; 0
     91a:	14 c0       	rjmp	.+40     	; 0x944 <Buffer_GetString+0x40>
	{
		strcpy(buffer->Strings[i], buffer->Strings[i + 1]);
     91c:	81 2f       	mov	r24, r17
     91e:	90 e0       	ldi	r25, 0x00	; 0
     920:	fc 01       	movw	r30, r24
     922:	31 96       	adiw	r30, 0x01	; 1
     924:	ee 0f       	add	r30, r30
     926:	ff 1f       	adc	r31, r31
     928:	ec 0f       	add	r30, r28
     92a:	fd 1f       	adc	r31, r29
     92c:	60 81       	ld	r22, Z
     92e:	71 81       	ldd	r23, Z+1	; 0x01
     930:	88 0f       	add	r24, r24
     932:	99 1f       	adc	r25, r25
     934:	fe 01       	movw	r30, r28
     936:	e8 0f       	add	r30, r24
     938:	f9 1f       	adc	r31, r25
     93a:	80 81       	ld	r24, Z
     93c:	91 81       	ldd	r25, Z+1	; 0x01
     93e:	0e 94 30 08 	call	0x1060	; 0x1060 <strcpy>
}

char *Buffer_GetString(buffer_t *buffer)
{
	strcpy(buffer->DumyString, buffer->Strings[0]);								/* kopiowanie pierwszego elementu bufora do zmiennej pomocniczej		*/
	for (uint8_t i = 0; i < buffer->Count; i++)									/* przesuwanie elementów buforze										*/
     942:	1f 5f       	subi	r17, 0xFF	; 255
     944:	8c 89       	ldd	r24, Y+20	; 0x14
     946:	18 17       	cp	r17, r24
     948:	48 f3       	brcs	.-46     	; 0x91c <Buffer_GetString+0x18>
	{
		strcpy(buffer->Strings[i], buffer->Strings[i + 1]);
	}
	if (buffer->Count > 0) buffer->Count--;										/* dekrementacja licznika elementów bufora								*/
     94a:	88 23       	and	r24, r24
     94c:	11 f0       	breq	.+4      	; 0x952 <Buffer_GetString+0x4e>
     94e:	81 50       	subi	r24, 0x01	; 1
     950:	8c 8b       	std	Y+20, r24	; 0x14
	buffer->IsFull = 0;															/* zerowanie flagi informuj¹cej ¿e bufor jest pe³ny						*/
     952:	8d 89       	ldd	r24, Y+21	; 0x15
     954:	8e 7f       	andi	r24, 0xFE	; 254
     956:	8d 8b       	std	Y+21, r24	; 0x15
	if (buffer->Count == 0) buffer->IsEmpty = 1;								/* ustawienie flagi informuj¹cej ¿e bufor jest pusty					*/
     958:	8c 89       	ldd	r24, Y+20	; 0x14
     95a:	81 11       	cpse	r24, r1
     95c:	03 c0       	rjmp	.+6      	; 0x964 <Buffer_GetString+0x60>
     95e:	8d 89       	ldd	r24, Y+21	; 0x15
     960:	82 60       	ori	r24, 0x02	; 2
     962:	8d 8b       	std	Y+21, r24	; 0x15
	return buffer->DumyString;													/* zwrócenie pierwszego elementu bufora									*/
}
     964:	8a 89       	ldd	r24, Y+18	; 0x12
     966:	9b 89       	ldd	r25, Y+19	; 0x13
     968:	df 91       	pop	r29
     96a:	cf 91       	pop	r28
     96c:	1f 91       	pop	r17
     96e:	08 95       	ret

00000970 <Buffer_Clear>:

void Buffer_Clear(buffer_t *buffer)
{
     970:	dc 01       	movw	r26, r24
	for (uint8_t i = 0; i < BUFFER_SIZE; i++)
     972:	90 e0       	ldi	r25, 0x00	; 0
     974:	0b c0       	rjmp	.+22     	; 0x98c <Buffer_Clear+0x1c>
	{
		strcpy(buffer->Strings[i], "");											/* wype³nienie elementów bufora pustymi znakami							*/
     976:	e9 2f       	mov	r30, r25
     978:	f0 e0       	ldi	r31, 0x00	; 0
     97a:	ee 0f       	add	r30, r30
     97c:	ff 1f       	adc	r31, r31
     97e:	ea 0f       	add	r30, r26
     980:	fb 1f       	adc	r31, r27
     982:	01 90       	ld	r0, Z+
     984:	f0 81       	ld	r31, Z
     986:	e0 2d       	mov	r30, r0
     988:	10 82       	st	Z, r1
	return buffer->DumyString;													/* zwrócenie pierwszego elementu bufora									*/
}

void Buffer_Clear(buffer_t *buffer)
{
	for (uint8_t i = 0; i < BUFFER_SIZE; i++)
     98a:	9f 5f       	subi	r25, 0xFF	; 255
     98c:	99 30       	cpi	r25, 0x09	; 9
     98e:	98 f3       	brcs	.-26     	; 0x976 <Buffer_Clear+0x6>
	{
		strcpy(buffer->Strings[i], "");											/* wype³nienie elementów bufora pustymi znakami							*/
	}
	strcpy(buffer->DumyString, "");												/* wype³nienie ³añcucha pomocniczego pustymi znakami					*/
     990:	52 96       	adiw	r26, 0x12	; 18
     992:	ed 91       	ld	r30, X+
     994:	fc 91       	ld	r31, X
     996:	53 97       	sbiw	r26, 0x13	; 19
     998:	10 82       	st	Z, r1
	buffer->Count = 0;															/* zerowanie licznika elementów											*/
     99a:	54 96       	adiw	r26, 0x14	; 20
     99c:	1c 92       	st	X, r1
     99e:	54 97       	sbiw	r26, 0x14	; 20
	buffer->IsFull = 0;															/* zerowanie flagi nape³nienia bufora									*/
     9a0:	55 96       	adiw	r26, 0x15	; 21
     9a2:	8c 91       	ld	r24, X
     9a4:	55 97       	sbiw	r26, 0x15	; 21
	buffer->IsEmpty = 1;														/* ustawienie flagi informuj¹cej ¿e bufor jest pusty					*/
     9a6:	8e 7f       	andi	r24, 0xFE	; 254
     9a8:	82 60       	ori	r24, 0x02	; 2
     9aa:	55 96       	adiw	r26, 0x15	; 21
     9ac:	8c 93       	st	X, r24
     9ae:	08 95       	ret

000009b0 <Usart_Init>:
/*------------------------------------------------------------------------------------------------------------------------------------------------------*/

/*----------------------------------Definicje funkcji---------------------------------------------------------------------------------------------------*/

void Usart_Init(USART_t *module, PORT_t *moduleport, uint8_t nrtxpin, uint8_t nrrxpin)
{	
     9b0:	fb 01       	movw	r30, r22
	RS232Port = module;															/* ustawienie wskaŸnika na modu³ usart									*/
     9b2:	80 93 62 20 	sts	0x2062, r24	; 0x802062 <RS232Port>
     9b6:	90 93 63 20 	sts	0x2063, r25	; 0x802063 <RS232Port+0x1>
	
	moduleport->OUTSET = (1<<nrtxpin);											/* pin RX w stan wysoki													*/
     9ba:	81 e0       	ldi	r24, 0x01	; 1
     9bc:	90 e0       	ldi	r25, 0x00	; 0
     9be:	bc 01       	movw	r22, r24
     9c0:	02 c0       	rjmp	.+4      	; 0x9c6 <Usart_Init+0x16>
     9c2:	66 0f       	add	r22, r22
     9c4:	77 1f       	adc	r23, r23
     9c6:	4a 95       	dec	r20
     9c8:	e2 f7       	brpl	.-8      	; 0x9c2 <Usart_Init+0x12>
     9ca:	65 83       	std	Z+5, r22	; 0x05
	moduleport->DIRSET = (1<<nrtxpin);											/* pin RX jako wyjœcie													*/
     9cc:	61 83       	std	Z+1, r22	; 0x01
	moduleport->DIRCLR = (1<<nrrxpin);											/* pin TX jako wejœcie													*/
     9ce:	02 c0       	rjmp	.+4      	; 0x9d4 <Usart_Init+0x24>
     9d0:	88 0f       	add	r24, r24
     9d2:	99 1f       	adc	r25, r25
     9d4:	2a 95       	dec	r18
     9d6:	e2 f7       	brpl	.-8      	; 0x9d0 <Usart_Init+0x20>
     9d8:	82 83       	std	Z+2, r24	; 0x02
	
	RS232Port->BAUDCTRLA = 12;													/* BSEL BITY - 0:7	(ustawienie prêdkoœci transmisji)					*/
     9da:	e0 91 62 20 	lds	r30, 0x2062	; 0x802062 <RS232Port>
     9de:	f0 91 63 20 	lds	r31, 0x2063	; 0x802063 <RS232Port+0x1>
     9e2:	8c e0       	ldi	r24, 0x0C	; 12
     9e4:	86 83       	std	Z+6, r24	; 0x06
	RS232Port->BAUDCTRLB = 64;													/* BSEL BITY - 8:11, BSCALE BITY - 0:3(ustawienie prêdkoœci transmisji) */
     9e6:	80 e4       	ldi	r24, 0x40	; 64
     9e8:	87 83       	std	Z+7, r24	; 0x07
	RS232Port->CTRLC = USART_CHSIZE_8BIT_gc;									/* ustawienie ramki danych: 8bitów danych 1bit stopu, bez parzystoœci	*/
     9ea:	83 e0       	ldi	r24, 0x03	; 3
     9ec:	85 83       	std	Z+5, r24	; 0x05
	RS232Port->CTRLA = (USART_RXCINTLVL_MED_gc);								/* ustawienie priorytetu przerwania receive								*/
     9ee:	80 e2       	ldi	r24, 0x20	; 32
     9f0:	83 83       	std	Z+3, r24	; 0x03
	PMIC.CTRL |= PMIC_MEDLVLEN_bm;												/* globalne odblokowanie przerwañ œredniego priorytetu					*/
     9f2:	a0 ea       	ldi	r26, 0xA0	; 160
     9f4:	b0 e0       	ldi	r27, 0x00	; 0
     9f6:	12 96       	adiw	r26, 0x02	; 2
     9f8:	8c 91       	ld	r24, X
     9fa:	12 97       	sbiw	r26, 0x02	; 2
     9fc:	82 60       	ori	r24, 0x02	; 2
     9fe:	12 96       	adiw	r26, 0x02	; 2
     a00:	8c 93       	st	X, r24
	RS232Port->CTRLB |= (USART_RXEN_bm | USART_TXEN_bm);						/* odblokowanie odbiornika i nadajnika USATR							*/
     a02:	84 81       	ldd	r24, Z+4	; 0x04
     a04:	88 61       	ori	r24, 0x18	; 24
     a06:	84 83       	std	Z+4, r24	; 0x04

	/* inicjalizacja tablicy znaków	*/
	for (uint8_t i = 0; i < RECEIVE_MAX_CHARS; i++)
     a08:	80 e0       	ldi	r24, 0x00	; 0
     a0a:	06 c0       	rjmp	.+12     	; 0xa18 <Usart_Init+0x68>
	{
		ReceivedChars[i] = 0;
     a0c:	e8 2f       	mov	r30, r24
     a0e:	f0 e0       	ldi	r31, 0x00	; 0
     a10:	e8 59       	subi	r30, 0x98	; 152
     a12:	ff 4d       	sbci	r31, 0xDF	; 223
     a14:	10 82       	st	Z, r1
	RS232Port->CTRLA = (USART_RXCINTLVL_MED_gc);								/* ustawienie priorytetu przerwania receive								*/
	PMIC.CTRL |= PMIC_MEDLVLEN_bm;												/* globalne odblokowanie przerwañ œredniego priorytetu					*/
	RS232Port->CTRLB |= (USART_RXEN_bm | USART_TXEN_bm);						/* odblokowanie odbiornika i nadajnika USATR							*/

	/* inicjalizacja tablicy znaków	*/
	for (uint8_t i = 0; i < RECEIVE_MAX_CHARS; i++)
     a16:	8f 5f       	subi	r24, 0xFF	; 255
     a18:	80 31       	cpi	r24, 0x10	; 16
     a1a:	c0 f3       	brcs	.-16     	; 0xa0c <Usart_Init+0x5c>
	{
		ReceivedChars[i] = 0;
	}
	/* inicjalizacja ³añcuchów, odbiorczego i nadawczego	*/
	ReceivedString = (char *)malloc(sizeof(char) * RECEIVE_MAX_CHARS);			/* alokacja pamiêci dla ³añcucha odbiorczego							*/
     a1c:	80 e1       	ldi	r24, 0x10	; 16
     a1e:	90 e0       	ldi	r25, 0x00	; 0
     a20:	0e 94 f1 06 	call	0xde2	; 0xde2 <malloc>
     a24:	80 93 78 20 	sts	0x2078, r24	; 0x802078 <ReceivedString>
     a28:	90 93 79 20 	sts	0x2079, r25	; 0x802079 <ReceivedString+0x1>
	SendingString = (char *)malloc(sizeof(char) * SENDING_MAX_CHARS);			/* alokacja pamiêci dla ³añcucha nadawczego								*/
     a2c:	80 e1       	ldi	r24, 0x10	; 16
     a2e:	90 e0       	ldi	r25, 0x00	; 0
     a30:	0e 94 f1 06 	call	0xde2	; 0xde2 <malloc>
     a34:	80 93 66 20 	sts	0x2066, r24	; 0x802066 <SendingString>
     a38:	90 93 67 20 	sts	0x2067, r25	; 0x802067 <SendingString+0x1>
     a3c:	08 95       	ret

00000a3e <Usart_SendString>:
	
}

void Usart_SendString(char *str)
{
	strcpy(SendingString, str);													/* przygotowanie wskazanego ³añcucha do wys³ania						*/
     a3e:	bc 01       	movw	r22, r24
     a40:	80 91 66 20 	lds	r24, 0x2066	; 0x802066 <SendingString>
     a44:	90 91 67 20 	lds	r25, 0x2067	; 0x802067 <SendingString+0x1>
     a48:	0e 94 30 08 	call	0x1060	; 0x1060 <strcpy>
	RS232Port->CTRLA |= (USART_DREINTLVL1_bm);									/* ustawienie priorytetu przerwania data reg empty						*/
     a4c:	e0 91 62 20 	lds	r30, 0x2062	; 0x802062 <RS232Port>
     a50:	f0 91 63 20 	lds	r31, 0x2063	; 0x802063 <RS232Port+0x1>
     a54:	83 81       	ldd	r24, Z+3	; 0x03
     a56:	82 60       	ori	r24, 0x02	; 2
     a58:	83 83       	std	Z+3, r24	; 0x03
     a5a:	08 95       	ret

00000a5c <Usart_GetString>:

char *Usart_GetString(char znak)
{
	static uint8_t CharsCount = 0;												/* licznik znaków odebranych z usart									*/
	
	if (znak > 31 && znak < 127)												/* jeœli odebrany znak jest drukowalny to:								*/
     a5c:	90 ee       	ldi	r25, 0xE0	; 224
     a5e:	98 0f       	add	r25, r24
     a60:	9f 35       	cpi	r25, 0x5F	; 95
     a62:	50 f4       	brcc	.+20     	; 0xa78 <Usart_GetString+0x1c>
	{
		ReceivedChars[CharsCount++] = znak;										/* dodaj znak do tablicy												*/
     a64:	e0 91 61 20 	lds	r30, 0x2061	; 0x802061 <CharsCount.4058>
     a68:	91 e0       	ldi	r25, 0x01	; 1
     a6a:	9e 0f       	add	r25, r30
     a6c:	90 93 61 20 	sts	0x2061, r25	; 0x802061 <CharsCount.4058>
     a70:	f0 e0       	ldi	r31, 0x00	; 0
     a72:	e8 59       	subi	r30, 0x98	; 152
     a74:	ff 4d       	sbci	r31, 0xDF	; 223
     a76:	80 83       	st	Z, r24
	}
	
	if (znak == CR || znak == NUL || CharsCount >= RECEIVE_MAX_CHARS - 3)		/* jeœli wykryty zostanie koniec ³añcucha to:							*/
     a78:	8d 30       	cpi	r24, 0x0D	; 13
     a7a:	31 f0       	breq	.+12     	; 0xa88 <Usart_GetString+0x2c>
     a7c:	88 23       	and	r24, r24
     a7e:	21 f0       	breq	.+8      	; 0xa88 <Usart_GetString+0x2c>
     a80:	80 91 61 20 	lds	r24, 0x2061	; 0x802061 <CharsCount.4058>
     a84:	8d 30       	cpi	r24, 0x0D	; 13
     a86:	d0 f0       	brcs	.+52     	; 0xabc <Usart_GetString+0x60>
	{
		ReceivedChars[CharsCount++] = LF;										/* dodaj znak nowego wiersza											*/
     a88:	a0 91 61 20 	lds	r26, 0x2061	; 0x802061 <CharsCount.4058>
     a8c:	e1 e0       	ldi	r30, 0x01	; 1
     a8e:	ea 0f       	add	r30, r26
     a90:	b0 e0       	ldi	r27, 0x00	; 0
     a92:	a8 59       	subi	r26, 0x98	; 152
     a94:	bf 4d       	sbci	r27, 0xDF	; 223
     a96:	8a e0       	ldi	r24, 0x0A	; 10
     a98:	8c 93       	st	X, r24
		ReceivedChars[CharsCount++] = CR;										/* dodaj znak powrotu karetki											*/
     a9a:	81 e0       	ldi	r24, 0x01	; 1
     a9c:	8e 0f       	add	r24, r30
     a9e:	f0 e0       	ldi	r31, 0x00	; 0
     aa0:	e8 59       	subi	r30, 0x98	; 152
     aa2:	ff 4d       	sbci	r31, 0xDF	; 223
     aa4:	9d e0       	ldi	r25, 0x0D	; 13
     aa6:	90 83       	st	Z, r25
		ReceivedChars[CharsCount] = NUL;										/* dodaj znak NUL koniec wiersza										*/
     aa8:	e8 2f       	mov	r30, r24
     aaa:	f0 e0       	ldi	r31, 0x00	; 0
     aac:	e8 59       	subi	r30, 0x98	; 152
     aae:	ff 4d       	sbci	r31, 0xDF	; 223
     ab0:	10 82       	st	Z, r1
		CharsCount = 0;															/* zeruj licznik odebranych znaków										*/
     ab2:	10 92 61 20 	sts	0x2061, r1	; 0x802061 <CharsCount.4058>
		return &ReceivedChars[0];												/* zwróæ wskaŸnik na tablicê odebranych znaków							*/
     ab6:	88 e6       	ldi	r24, 0x68	; 104
     ab8:	90 e2       	ldi	r25, 0x20	; 32
     aba:	08 95       	ret
	} 
	else																		/* a jeœli koniec wiersza nie zosta³ wykryty to :						*/
	{
		return NULL;															/* zwróæ wartoœæ pust¹(odbiór wiersza jeszcze siê nie zakoñczy³)		*/
     abc:	80 e0       	ldi	r24, 0x00	; 0
     abe:	90 e0       	ldi	r25, 0x00	; 0
	}
}
     ac0:	08 95       	ret

00000ac2 <__vector_92>:


/*---------------------------PRZERWANIA-----------------------------------------------------------------------------------------------------------------*/

ISR(USARTD1_DRE_vect)
{
     ac2:	1f 92       	push	r1
     ac4:	0f 92       	push	r0
     ac6:	0f b6       	in	r0, 0x3f	; 63
     ac8:	0f 92       	push	r0
     aca:	11 24       	eor	r1, r1
     acc:	8f 93       	push	r24
     ace:	9f 93       	push	r25
     ad0:	ef 93       	push	r30
     ad2:	ff 93       	push	r31
	static uint8_t i = 0;																					/* licznik znaków														*/
	if (!SendingString[i] || (SendingString[i] < 32 && SendingString[i] != 10 && SendingString[i] != 13))	/* jeœli znak NUL lub niedrukowalny to zakoñcz wysy³anie				*/
     ad4:	90 91 60 20 	lds	r25, 0x2060	; 0x802060 <i.4064>
     ad8:	e0 91 66 20 	lds	r30, 0x2066	; 0x802066 <SendingString>
     adc:	f0 91 67 20 	lds	r31, 0x2067	; 0x802067 <SendingString+0x1>
     ae0:	e9 0f       	add	r30, r25
     ae2:	f1 1d       	adc	r31, r1
     ae4:	80 81       	ld	r24, Z
     ae6:	88 23       	and	r24, r24
     ae8:	31 f0       	breq	.+12     	; 0xaf6 <__vector_92+0x34>
     aea:	80 32       	cpi	r24, 0x20	; 32
     aec:	98 f4       	brcc	.+38     	; 0xb14 <__vector_92+0x52>
     aee:	8a 30       	cpi	r24, 0x0A	; 10
     af0:	89 f0       	breq	.+34     	; 0xb14 <__vector_92+0x52>
     af2:	8d 30       	cpi	r24, 0x0D	; 13
     af4:	79 f0       	breq	.+30     	; 0xb14 <__vector_92+0x52>
	{
		RS232Port->DATA = 0;																				/* wyœlij NUL, znak koñcz¹cy ³añcuch									*/
     af6:	e0 91 62 20 	lds	r30, 0x2062	; 0x802062 <RS232Port>
     afa:	f0 91 63 20 	lds	r31, 0x2063	; 0x802063 <RS232Port+0x1>
     afe:	10 82       	st	Z, r1
		RS232Port->CTRLA &= ~(USART_DREINTLVL1_bm);															/* zablokowanie przerwania data reg empty								*/
     b00:	e0 91 62 20 	lds	r30, 0x2062	; 0x802062 <RS232Port>
     b04:	f0 91 63 20 	lds	r31, 0x2063	; 0x802063 <RS232Port+0x1>
     b08:	83 81       	ldd	r24, Z+3	; 0x03
     b0a:	8d 7f       	andi	r24, 0xFD	; 253
     b0c:	83 83       	std	Z+3, r24	; 0x03
		i = 0;																								/* zerowanie licznik znaków												*/
     b0e:	10 92 60 20 	sts	0x2060, r1	; 0x802060 <i.4064>
     b12:	08 c0       	rjmp	.+16     	; 0xb24 <__vector_92+0x62>
	}
	else																									/* jeœli aktualny znak to liczba lub litera t:							*/
	{
		RS232Port->DATA = SendingString[i++];																/* wyœlij znak															*/
     b14:	e0 91 62 20 	lds	r30, 0x2062	; 0x802062 <RS232Port>
     b18:	f0 91 63 20 	lds	r31, 0x2063	; 0x802063 <RS232Port+0x1>
     b1c:	9f 5f       	subi	r25, 0xFF	; 255
     b1e:	90 93 60 20 	sts	0x2060, r25	; 0x802060 <i.4064>
     b22:	80 83       	st	Z, r24
	}
}
     b24:	ff 91       	pop	r31
     b26:	ef 91       	pop	r30
     b28:	9f 91       	pop	r25
     b2a:	8f 91       	pop	r24
     b2c:	0f 90       	pop	r0
     b2e:	0f be       	out	0x3f, r0	; 63
     b30:	0f 90       	pop	r0
     b32:	1f 90       	pop	r1
     b34:	18 95       	reti

00000b36 <__vector_91>:

ISR(USARTD1_RXC_vect)
{
     b36:	1f 92       	push	r1
     b38:	0f 92       	push	r0
     b3a:	0f b6       	in	r0, 0x3f	; 63
     b3c:	0f 92       	push	r0
     b3e:	11 24       	eor	r1, r1
     b40:	2f 93       	push	r18
     b42:	3f 93       	push	r19
     b44:	4f 93       	push	r20
     b46:	5f 93       	push	r21
     b48:	6f 93       	push	r22
     b4a:	7f 93       	push	r23
     b4c:	8f 93       	push	r24
     b4e:	9f 93       	push	r25
     b50:	af 93       	push	r26
     b52:	bf 93       	push	r27
     b54:	ef 93       	push	r30
     b56:	ff 93       	push	r31
	char c = RS232Port->DATA;																				/* pobierz znak z usart													*/
     b58:	e0 91 62 20 	lds	r30, 0x2062	; 0x802062 <RS232Port>
     b5c:	f0 91 63 20 	lds	r31, 0x2063	; 0x802063 <RS232Port+0x1>
     b60:	80 81       	ld	r24, Z
	ReceivedString = Usart_GetString(c);																	/* utwórz ³añcuch z odebranych znaków									*/
     b62:	0e 94 2e 05 	call	0xa5c	; 0xa5c <Usart_GetString>
     b66:	80 93 78 20 	sts	0x2078, r24	; 0x802078 <ReceivedString>
     b6a:	90 93 79 20 	sts	0x2079, r25	; 0x802079 <ReceivedString+0x1>
	if (ReceivedString != NULL)																				/* jeœli ³añcuch znaków nie jest pusty to:								*/
     b6e:	00 97       	sbiw	r24, 0x00	; 0
     b70:	59 f0       	breq	.+22     	; 0xb88 <__vector_91+0x52>
	{
		Buffer_InsertString(ReceivingBuffer, ReceivedString);												/* dodaj ³añcuch do bufora odbiorczego									*/
     b72:	bc 01       	movw	r22, r24
     b74:	80 91 5e 20 	lds	r24, 0x205E	; 0x80205e <ReceivingBuffer>
     b78:	90 91 5f 20 	lds	r25, 0x205F	; 0x80205f <ReceivingBuffer+0x1>
     b7c:	0e 94 64 04 	call	0x8c8	; 0x8c8 <Buffer_InsertString>
		ReceivedString = NULL;																				/* zeruj ³añcuch odbiorczy												*/
     b80:	10 92 78 20 	sts	0x2078, r1	; 0x802078 <ReceivedString>
     b84:	10 92 79 20 	sts	0x2079, r1	; 0x802079 <ReceivedString+0x1>
	}
}
     b88:	ff 91       	pop	r31
     b8a:	ef 91       	pop	r30
     b8c:	bf 91       	pop	r27
     b8e:	af 91       	pop	r26
     b90:	9f 91       	pop	r25
     b92:	8f 91       	pop	r24
     b94:	7f 91       	pop	r23
     b96:	6f 91       	pop	r22
     b98:	5f 91       	pop	r21
     b9a:	4f 91       	pop	r20
     b9c:	3f 91       	pop	r19
     b9e:	2f 91       	pop	r18
     ba0:	0f 90       	pop	r0
     ba2:	0f be       	out	0x3f, r0	; 63
     ba4:	0f 90       	pop	r0
     ba6:	1f 90       	pop	r1
     ba8:	18 95       	reti

00000baa <Driver_FreeAxes>:
    return 1;
}

static __inline__ uint8_t __iCliRetVal(void)
{
    cli();
     baa:	f8 94       	cli
	drv->DriverPort->OUTCLR = (1<<drv->EnablePin);					/* luzowanie silnika				*/
}

void Driver_FreeAxes(void)
{
	ATOMIC_BLOCK(ATOMIC_FORCEON)
     bac:	81 e0       	ldi	r24, 0x01	; 1
     bae:	29 c0       	rjmp	.+82     	; 0xc02 <Driver_FreeAxes+0x58>
	{
		axisA->Free(axisA);											/* luzowanie silnika osi A			*/
     bb0:	80 91 7e 20 	lds	r24, 0x207E	; 0x80207e <axisA>
     bb4:	90 91 7f 20 	lds	r25, 0x207F	; 0x80207f <axisA+0x1>
     bb8:	dc 01       	movw	r26, r24
     bba:	5d 96       	adiw	r26, 0x1d	; 29
     bbc:	ed 91       	ld	r30, X+
     bbe:	fc 91       	ld	r31, X
     bc0:	5e 97       	sbiw	r26, 0x1e	; 30
     bc2:	09 95       	icall
		axisB->Free(axisB);											/* luzowanie silnika osi B			*/
     bc4:	80 91 80 20 	lds	r24, 0x2080	; 0x802080 <axisB>
     bc8:	90 91 81 20 	lds	r25, 0x2081	; 0x802081 <axisB+0x1>
     bcc:	dc 01       	movw	r26, r24
     bce:	5d 96       	adiw	r26, 0x1d	; 29
     bd0:	ed 91       	ld	r30, X+
     bd2:	fc 91       	ld	r31, X
     bd4:	5e 97       	sbiw	r26, 0x1e	; 30
     bd6:	09 95       	icall
		axisC->Free(axisC);											/* luzowanie silnika osi C			*/
     bd8:	80 91 86 20 	lds	r24, 0x2086	; 0x802086 <axisC>
     bdc:	90 91 87 20 	lds	r25, 0x2087	; 0x802087 <axisC+0x1>
     be0:	dc 01       	movw	r26, r24
     be2:	5d 96       	adiw	r26, 0x1d	; 29
     be4:	ed 91       	ld	r30, X+
     be6:	fc 91       	ld	r31, X
     be8:	5e 97       	sbiw	r26, 0x1e	; 30
     bea:	09 95       	icall
		axisZ->Free(axisZ);											/* luzowanie silnika osi Z			*/
     bec:	80 91 7a 20 	lds	r24, 0x207A	; 0x80207a <axisZ>
     bf0:	90 91 7b 20 	lds	r25, 0x207B	; 0x80207b <axisZ+0x1>
     bf4:	dc 01       	movw	r26, r24
     bf6:	5d 96       	adiw	r26, 0x1d	; 29
     bf8:	ed 91       	ld	r30, X+
     bfa:	fc 91       	ld	r31, X
     bfc:	5e 97       	sbiw	r26, 0x1e	; 30
     bfe:	09 95       	icall
	drv->DriverPort->OUTCLR = (1<<drv->EnablePin);					/* luzowanie silnika				*/
}

void Driver_FreeAxes(void)
{
	ATOMIC_BLOCK(ATOMIC_FORCEON)
     c00:	80 e0       	ldi	r24, 0x00	; 0
     c02:	81 11       	cpse	r24, r1
     c04:	d5 cf       	rjmp	.-86     	; 0xbb0 <Driver_FreeAxes+0x6>
    return 1;
}

static __inline__ void __iSeiParam(const uint8_t *__s)
{
    sei();
     c06:	78 94       	sei
    __asm__ volatile ("" ::: "memory");
     c08:	08 95       	ret

00000c0a <Driver_StopRobot>:
    return 1;
}

static __inline__ uint8_t __iCliRetVal(void)
{
    cli();
     c0a:	f8 94       	cli
	}
}

void Driver_StopRobot(void)
{
	ATOMIC_BLOCK(ATOMIC_FORCEON)
     c0c:	81 e0       	ldi	r24, 0x01	; 1
     c0e:	3d c0       	rjmp	.+122    	; 0xc8a <Driver_StopRobot+0x80>
	{
		axisA->Stop(axisA);											/* zatrzymanie silnika osi A		*/
     c10:	80 91 7e 20 	lds	r24, 0x207E	; 0x80207e <axisA>
     c14:	90 91 7f 20 	lds	r25, 0x207F	; 0x80207f <axisA+0x1>
     c18:	dc 01       	movw	r26, r24
     c1a:	5b 96       	adiw	r26, 0x1b	; 27
     c1c:	ed 91       	ld	r30, X+
     c1e:	fc 91       	ld	r31, X
     c20:	5c 97       	sbiw	r26, 0x1c	; 28
     c22:	09 95       	icall
		axisB->Stop(axisB);											/* zatrzymanie silnika osi B		*/
     c24:	80 91 80 20 	lds	r24, 0x2080	; 0x802080 <axisB>
     c28:	90 91 81 20 	lds	r25, 0x2081	; 0x802081 <axisB+0x1>
     c2c:	dc 01       	movw	r26, r24
     c2e:	5b 96       	adiw	r26, 0x1b	; 27
     c30:	ed 91       	ld	r30, X+
     c32:	fc 91       	ld	r31, X
     c34:	5c 97       	sbiw	r26, 0x1c	; 28
     c36:	09 95       	icall
		axisC->Stop(axisC);											/* zatrzymanie silnika osi C		*/
     c38:	80 91 86 20 	lds	r24, 0x2086	; 0x802086 <axisC>
     c3c:	90 91 87 20 	lds	r25, 0x2087	; 0x802087 <axisC+0x1>
     c40:	dc 01       	movw	r26, r24
     c42:	5b 96       	adiw	r26, 0x1b	; 27
     c44:	ed 91       	ld	r30, X+
     c46:	fc 91       	ld	r31, X
     c48:	5c 97       	sbiw	r26, 0x1c	; 28
     c4a:	09 95       	icall
		axisZ->Stop(axisZ);											/* zatrzymanie silnika osi Z		*/
     c4c:	80 91 7a 20 	lds	r24, 0x207A	; 0x80207a <axisZ>
     c50:	90 91 7b 20 	lds	r25, 0x207B	; 0x80207b <axisZ+0x1>
     c54:	dc 01       	movw	r26, r24
     c56:	5b 96       	adiw	r26, 0x1b	; 27
     c58:	ed 91       	ld	r30, X+
     c5a:	fc 91       	ld	r31, X
     c5c:	5c 97       	sbiw	r26, 0x1c	; 28
     c5e:	09 95       	icall
		axisG->Stop(axisG);											/* zatrzymanie silnika osi G		*/
     c60:	80 91 82 20 	lds	r24, 0x2082	; 0x802082 <axisG>
     c64:	90 91 83 20 	lds	r25, 0x2083	; 0x802083 <axisG+0x1>
     c68:	dc 01       	movw	r26, r24
     c6a:	1e 96       	adiw	r26, 0x0e	; 14
     c6c:	ed 91       	ld	r30, X+
     c6e:	fc 91       	ld	r31, X
     c70:	1f 97       	sbiw	r26, 0x0f	; 15
     c72:	09 95       	icall
		axisT->Stop(axisT);											/* zatrzymanie silnika osi T		*/								
     c74:	80 91 84 20 	lds	r24, 0x2084	; 0x802084 <axisT>
     c78:	90 91 85 20 	lds	r25, 0x2085	; 0x802085 <axisT+0x1>
     c7c:	dc 01       	movw	r26, r24
     c7e:	1e 96       	adiw	r26, 0x0e	; 14
     c80:	ed 91       	ld	r30, X+
     c82:	fc 91       	ld	r31, X
     c84:	1f 97       	sbiw	r26, 0x0f	; 15
     c86:	09 95       	icall
	}
}

void Driver_StopRobot(void)
{
	ATOMIC_BLOCK(ATOMIC_FORCEON)
     c88:	80 e0       	ldi	r24, 0x00	; 0
     c8a:	81 11       	cpse	r24, r1
     c8c:	c1 cf       	rjmp	.-126    	; 0xc10 <Driver_StopRobot+0x6>
    return 1;
}

static __inline__ void __iSeiParam(const uint8_t *__s)
{
    sei();
     c8e:	78 94       	sei
    __asm__ volatile ("" ::: "memory");
     c90:	08 95       	ret

00000c92 <Driver_EmergencyStop>:
	}
}

void Driver_EmergencyStop(void)
{
	Driver_StopRobot();
     c92:	0e 94 05 06 	call	0xc0a	; 0xc0a <Driver_StopRobot>
	Driver_FreeAxes();
     c96:	0e 94 d5 05 	call	0xbaa	; 0xbaa <Driver_FreeAxes>
     c9a:	08 95       	ret

00000c9c <Driver_StepperTimerIsr>:
}

void Driver_StepperTimerIsr(stepper_driver_t *driver)
{
     c9c:	fc 01       	movw	r30, r24
	static uint8_t ar = 0;
	static uint8_t br = 0;
	static uint8_t cr = 0;
	static uint8_t zr = 0;
	
	driver->Direction ? driver->CurrentPosition++ : driver->CurrentPosition--;		/* w zale¿noœci od kierunku obrotów, zwiêkszaj lub zmniejszaj wartoœæ pozycji aktualnej	*/
     c9e:	80 85       	ldd	r24, Z+8	; 0x08
     ca0:	88 23       	and	r24, r24
     ca2:	31 f0       	breq	.+12     	; 0xcb0 <Driver_StepperTimerIsr+0x14>
     ca4:	82 81       	ldd	r24, Z+2	; 0x02
     ca6:	93 81       	ldd	r25, Z+3	; 0x03
     ca8:	01 96       	adiw	r24, 0x01	; 1
     caa:	82 83       	std	Z+2, r24	; 0x02
     cac:	93 83       	std	Z+3, r25	; 0x03
     cae:	05 c0       	rjmp	.+10     	; 0xcba <Driver_StepperTimerIsr+0x1e>
     cb0:	82 81       	ldd	r24, Z+2	; 0x02
     cb2:	93 81       	ldd	r25, Z+3	; 0x03
     cb4:	01 97       	sbiw	r24, 0x01	; 1
     cb6:	82 83       	std	Z+2, r24	; 0x02
     cb8:	93 83       	std	Z+3, r25	; 0x03
	if (driver->CurrentPosition == driver->SetpointPosition || 
     cba:	82 81       	ldd	r24, Z+2	; 0x02
     cbc:	93 81       	ldd	r25, Z+3	; 0x03
     cbe:	20 81       	ld	r18, Z
     cc0:	31 81       	ldd	r19, Z+1	; 0x01
     cc2:	82 17       	cp	r24, r18
     cc4:	93 07       	cpc	r25, r19
     cc6:	51 f0       	breq	.+20     	; 0xcdc <Driver_StepperTimerIsr+0x40>
		driver->CurrentPosition >= driver->MaximumPosition ||
     cc8:	24 81       	ldd	r18, Z+4	; 0x04
     cca:	35 81       	ldd	r19, Z+5	; 0x05
	static uint8_t br = 0;
	static uint8_t cr = 0;
	static uint8_t zr = 0;
	
	driver->Direction ? driver->CurrentPosition++ : driver->CurrentPosition--;		/* w zale¿noœci od kierunku obrotów, zwiêkszaj lub zmniejszaj wartoœæ pozycji aktualnej	*/
	if (driver->CurrentPosition == driver->SetpointPosition || 
     ccc:	82 17       	cp	r24, r18
     cce:	93 07       	cpc	r25, r19
     cd0:	28 f4       	brcc	.+10     	; 0xcdc <Driver_StepperTimerIsr+0x40>
		driver->CurrentPosition >= driver->MaximumPosition ||
		driver->CurrentPosition <= driver->MinimumPosition)							/* jeœli osi¹gniêto pozycjê zadan¹ lub skrajn¹, to:										*/		
     cd2:	26 81       	ldd	r18, Z+6	; 0x06
     cd4:	37 81       	ldd	r19, Z+7	; 0x07
	static uint8_t cr = 0;
	static uint8_t zr = 0;
	
	driver->Direction ? driver->CurrentPosition++ : driver->CurrentPosition--;		/* w zale¿noœci od kierunku obrotów, zwiêkszaj lub zmniejszaj wartoœæ pozycji aktualnej	*/
	if (driver->CurrentPosition == driver->SetpointPosition || 
		driver->CurrentPosition >= driver->MaximumPosition ||
     cd6:	28 17       	cp	r18, r24
     cd8:	39 07       	cpc	r19, r25
     cda:	2c f0       	brlt	.+10     	; 0xce6 <Driver_StepperTimerIsr+0x4a>
     cdc:	cf 01       	movw	r24, r30
		driver->CurrentPosition <= driver->MinimumPosition)							/* jeœli osi¹gniêto pozycjê zadan¹ lub skrajn¹, to:										*/		
	{
		driver->Stop(driver);														/* zatrzymaj napêd																		*/
     cde:	03 8c       	ldd	r0, Z+27	; 0x1b
     ce0:	f4 8d       	ldd	r31, Z+28	; 0x1c
     ce2:	e0 2d       	mov	r30, r0
     ce4:	09 95       	icall
     ce6:	08 95       	ret

00000ce8 <__vector_20>:


/*---------------------------------Przerwania driverów------------------------------------------------------------------------------*/
/* axis Z*/
ISR(TCC1_OVF_vect)
{
     ce8:	1f 92       	push	r1
     cea:	0f 92       	push	r0
     cec:	0f b6       	in	r0, 0x3f	; 63
     cee:	0f 92       	push	r0
     cf0:	11 24       	eor	r1, r1
     cf2:	2f 93       	push	r18
     cf4:	3f 93       	push	r19
     cf6:	4f 93       	push	r20
     cf8:	5f 93       	push	r21
     cfa:	6f 93       	push	r22
     cfc:	7f 93       	push	r23
     cfe:	8f 93       	push	r24
     d00:	9f 93       	push	r25
     d02:	af 93       	push	r26
     d04:	bf 93       	push	r27
     d06:	ef 93       	push	r30
     d08:	ff 93       	push	r31
	Driver_StepperTimerIsr(axisZ);
     d0a:	80 91 7a 20 	lds	r24, 0x207A	; 0x80207a <axisZ>
     d0e:	90 91 7b 20 	lds	r25, 0x207B	; 0x80207b <axisZ+0x1>
     d12:	0e 94 4e 06 	call	0xc9c	; 0xc9c <Driver_StepperTimerIsr>
}
     d16:	ff 91       	pop	r31
     d18:	ef 91       	pop	r30
     d1a:	bf 91       	pop	r27
     d1c:	af 91       	pop	r26
     d1e:	9f 91       	pop	r25
     d20:	8f 91       	pop	r24
     d22:	7f 91       	pop	r23
     d24:	6f 91       	pop	r22
     d26:	5f 91       	pop	r21
     d28:	4f 91       	pop	r20
     d2a:	3f 91       	pop	r19
     d2c:	2f 91       	pop	r18
     d2e:	0f 90       	pop	r0
     d30:	0f be       	out	0x3f, r0	; 63
     d32:	0f 90       	pop	r0
     d34:	1f 90       	pop	r1
     d36:	18 95       	reti

00000d38 <__vector_83>:

ISR(TCD1_OVF_vect)
{
     d38:	1f 92       	push	r1
     d3a:	0f 92       	push	r0
     d3c:	0f b6       	in	r0, 0x3f	; 63
     d3e:	0f 92       	push	r0
     d40:	11 24       	eor	r1, r1
     d42:	2f 93       	push	r18
     d44:	3f 93       	push	r19
     d46:	4f 93       	push	r20
     d48:	5f 93       	push	r21
     d4a:	6f 93       	push	r22
     d4c:	7f 93       	push	r23
     d4e:	8f 93       	push	r24
     d50:	9f 93       	push	r25
     d52:	af 93       	push	r26
     d54:	bf 93       	push	r27
     d56:	ef 93       	push	r30
     d58:	ff 93       	push	r31
	Driver_StepperTimerIsr(axisC);
     d5a:	80 91 86 20 	lds	r24, 0x2086	; 0x802086 <axisC>
     d5e:	90 91 87 20 	lds	r25, 0x2087	; 0x802087 <axisC+0x1>
     d62:	0e 94 4e 06 	call	0xc9c	; 0xc9c <Driver_StepperTimerIsr>
}
     d66:	ff 91       	pop	r31
     d68:	ef 91       	pop	r30
     d6a:	bf 91       	pop	r27
     d6c:	af 91       	pop	r26
     d6e:	9f 91       	pop	r25
     d70:	8f 91       	pop	r24
     d72:	7f 91       	pop	r23
     d74:	6f 91       	pop	r22
     d76:	5f 91       	pop	r21
     d78:	4f 91       	pop	r20
     d7a:	3f 91       	pop	r19
     d7c:	2f 91       	pop	r18
     d7e:	0f 90       	pop	r0
     d80:	0f be       	out	0x3f, r0	; 63
     d82:	0f 90       	pop	r0
     d84:	1f 90       	pop	r1
     d86:	18 95       	reti

00000d88 <Work_RunRobot>:
		return 0;
	}
}

void Work_RunRobot(void)
{
     d88:	08 95       	ret

00000d8a <Work_StopRobot>:
}

void Work_StopRobot(void)
{
	//Work_TimerStop(RunTaskTimer);												/* zatrzymanie timera														*/
	Driver_EmergencyStop();														/* zatrzymanie robota														*/
     d8a:	0e 94 49 06 	call	0xc92	; 0xc92 <Driver_EmergencyStop>
     d8e:	08 95       	ret

00000d90 <main>:

//TWI_t *lcdBus = &TWIC;

int main(void)
{
	ClkSys32MHz();							
     d90:	0e 94 e4 06 	call	0xdc8	; 0xdc8 <ClkSys32MHz>
	//twiMasterInit(lcdBus, TWI_BAUDRATE);
	//ssd1306Init(lcdBus);
	//ssd1306ClrScr(lcdBus, 0xAA);
	//Driver_AxisInit();
	Job = Data_CreateList();
     d94:	0e 94 4b 01 	call	0x296	; 0x296 <Data_CreateList>
     d98:	80 93 64 20 	sts	0x2064, r24	; 0x802064 <Job>
     d9c:	90 93 65 20 	sts	0x2065, r25	; 0x802065 <Job+0x1>
	Bluetooth = HC05_Init(Bluetooth);
     da0:	80 91 5c 20 	lds	r24, 0x205C	; 0x80205c <Bluetooth>
     da4:	90 91 5d 20 	lds	r25, 0x205D	; 0x80205d <Bluetooth+0x1>
     da8:	0e 94 fa 03 	call	0x7f4	; 0x7f4 <HC05_Init>
     dac:	80 93 5c 20 	sts	0x205C, r24	; 0x80205c <Bluetooth>
     db0:	90 93 5d 20 	sts	0x205D, r25	; 0x80205d <Bluetooth+0x1>
	
	sei();
     db4:	78 94       	sei
    while (1) 
    {
		Bluetooth->Read();						/* cykliczne odbieranie ramek danych z telefonu	*/
     db6:	e0 91 5c 20 	lds	r30, 0x205C	; 0x80205c <Bluetooth>
     dba:	f0 91 5d 20 	lds	r31, 0x205D	; 0x80205d <Bluetooth+0x1>
     dbe:	04 80       	ldd	r0, Z+4	; 0x04
     dc0:	f5 81       	ldd	r31, Z+5	; 0x05
     dc2:	e0 2d       	mov	r30, r0
     dc4:	09 95       	icall
     dc6:	f7 cf       	rjmp	.-18     	; 0xdb6 <main+0x26>

00000dc8 <ClkSys32MHz>:

/*-----------------definicje funkcji---------------------------------------------------------------*/

void ClkSys32MHz(void)
{
	OSC.CTRL = OSC_RC32MEN_bm;
     dc8:	82 e0       	ldi	r24, 0x02	; 2
     dca:	80 93 50 00 	sts	0x0050, r24	; 0x800050 <__TEXT_REGION_LENGTH__+0x7fb050>
	while(!(OSC.STATUS & OSC_RC32MRDY_bm));
     dce:	80 91 51 00 	lds	r24, 0x0051	; 0x800051 <__TEXT_REGION_LENGTH__+0x7fb051>
     dd2:	81 ff       	sbrs	r24, 1
     dd4:	fc cf       	rjmp	.-8      	; 0xdce <ClkSys32MHz+0x6>
	CPU_CCP = CCP_IOREG_gc;
     dd6:	88 ed       	ldi	r24, 0xD8	; 216
     dd8:	84 bf       	out	0x34, r24	; 52
	CLK.CTRL = CLK_SCLKSEL_RC32M_gc;
     dda:	81 e0       	ldi	r24, 0x01	; 1
     ddc:	80 93 40 00 	sts	0x0040, r24	; 0x800040 <__TEXT_REGION_LENGTH__+0x7fb040>
     de0:	08 95       	ret

00000de2 <malloc>:
     de2:	0f 93       	push	r16
     de4:	1f 93       	push	r17
     de6:	cf 93       	push	r28
     de8:	df 93       	push	r29
     dea:	82 30       	cpi	r24, 0x02	; 2
     dec:	91 05       	cpc	r25, r1
     dee:	10 f4       	brcc	.+4      	; 0xdf4 <malloc+0x12>
     df0:	82 e0       	ldi	r24, 0x02	; 2
     df2:	90 e0       	ldi	r25, 0x00	; 0
     df4:	e0 91 8a 20 	lds	r30, 0x208A	; 0x80208a <__flp>
     df8:	f0 91 8b 20 	lds	r31, 0x208B	; 0x80208b <__flp+0x1>
     dfc:	20 e0       	ldi	r18, 0x00	; 0
     dfe:	30 e0       	ldi	r19, 0x00	; 0
     e00:	a0 e0       	ldi	r26, 0x00	; 0
     e02:	b0 e0       	ldi	r27, 0x00	; 0
     e04:	30 97       	sbiw	r30, 0x00	; 0
     e06:	19 f1       	breq	.+70     	; 0xe4e <malloc+0x6c>
     e08:	40 81       	ld	r20, Z
     e0a:	51 81       	ldd	r21, Z+1	; 0x01
     e0c:	02 81       	ldd	r16, Z+2	; 0x02
     e0e:	13 81       	ldd	r17, Z+3	; 0x03
     e10:	48 17       	cp	r20, r24
     e12:	59 07       	cpc	r21, r25
     e14:	c8 f0       	brcs	.+50     	; 0xe48 <malloc+0x66>
     e16:	84 17       	cp	r24, r20
     e18:	95 07       	cpc	r25, r21
     e1a:	69 f4       	brne	.+26     	; 0xe36 <malloc+0x54>
     e1c:	10 97       	sbiw	r26, 0x00	; 0
     e1e:	31 f0       	breq	.+12     	; 0xe2c <malloc+0x4a>
     e20:	12 96       	adiw	r26, 0x02	; 2
     e22:	0c 93       	st	X, r16
     e24:	12 97       	sbiw	r26, 0x02	; 2
     e26:	13 96       	adiw	r26, 0x03	; 3
     e28:	1c 93       	st	X, r17
     e2a:	27 c0       	rjmp	.+78     	; 0xe7a <malloc+0x98>
     e2c:	00 93 8a 20 	sts	0x208A, r16	; 0x80208a <__flp>
     e30:	10 93 8b 20 	sts	0x208B, r17	; 0x80208b <__flp+0x1>
     e34:	22 c0       	rjmp	.+68     	; 0xe7a <malloc+0x98>
     e36:	21 15       	cp	r18, r1
     e38:	31 05       	cpc	r19, r1
     e3a:	19 f0       	breq	.+6      	; 0xe42 <malloc+0x60>
     e3c:	42 17       	cp	r20, r18
     e3e:	53 07       	cpc	r21, r19
     e40:	18 f4       	brcc	.+6      	; 0xe48 <malloc+0x66>
     e42:	9a 01       	movw	r18, r20
     e44:	bd 01       	movw	r22, r26
     e46:	ef 01       	movw	r28, r30
     e48:	df 01       	movw	r26, r30
     e4a:	f8 01       	movw	r30, r16
     e4c:	db cf       	rjmp	.-74     	; 0xe04 <malloc+0x22>
     e4e:	21 15       	cp	r18, r1
     e50:	31 05       	cpc	r19, r1
     e52:	f9 f0       	breq	.+62     	; 0xe92 <malloc+0xb0>
     e54:	28 1b       	sub	r18, r24
     e56:	39 0b       	sbc	r19, r25
     e58:	24 30       	cpi	r18, 0x04	; 4
     e5a:	31 05       	cpc	r19, r1
     e5c:	80 f4       	brcc	.+32     	; 0xe7e <malloc+0x9c>
     e5e:	8a 81       	ldd	r24, Y+2	; 0x02
     e60:	9b 81       	ldd	r25, Y+3	; 0x03
     e62:	61 15       	cp	r22, r1
     e64:	71 05       	cpc	r23, r1
     e66:	21 f0       	breq	.+8      	; 0xe70 <malloc+0x8e>
     e68:	fb 01       	movw	r30, r22
     e6a:	82 83       	std	Z+2, r24	; 0x02
     e6c:	93 83       	std	Z+3, r25	; 0x03
     e6e:	04 c0       	rjmp	.+8      	; 0xe78 <malloc+0x96>
     e70:	80 93 8a 20 	sts	0x208A, r24	; 0x80208a <__flp>
     e74:	90 93 8b 20 	sts	0x208B, r25	; 0x80208b <__flp+0x1>
     e78:	fe 01       	movw	r30, r28
     e7a:	32 96       	adiw	r30, 0x02	; 2
     e7c:	44 c0       	rjmp	.+136    	; 0xf06 <malloc+0x124>
     e7e:	fe 01       	movw	r30, r28
     e80:	e2 0f       	add	r30, r18
     e82:	f3 1f       	adc	r31, r19
     e84:	81 93       	st	Z+, r24
     e86:	91 93       	st	Z+, r25
     e88:	22 50       	subi	r18, 0x02	; 2
     e8a:	31 09       	sbc	r19, r1
     e8c:	28 83       	st	Y, r18
     e8e:	39 83       	std	Y+1, r19	; 0x01
     e90:	3a c0       	rjmp	.+116    	; 0xf06 <malloc+0x124>
     e92:	20 91 88 20 	lds	r18, 0x2088	; 0x802088 <__brkval>
     e96:	30 91 89 20 	lds	r19, 0x2089	; 0x802089 <__brkval+0x1>
     e9a:	23 2b       	or	r18, r19
     e9c:	41 f4       	brne	.+16     	; 0xeae <malloc+0xcc>
     e9e:	20 91 02 20 	lds	r18, 0x2002	; 0x802002 <__malloc_heap_start>
     ea2:	30 91 03 20 	lds	r19, 0x2003	; 0x802003 <__malloc_heap_start+0x1>
     ea6:	20 93 88 20 	sts	0x2088, r18	; 0x802088 <__brkval>
     eaa:	30 93 89 20 	sts	0x2089, r19	; 0x802089 <__brkval+0x1>
     eae:	20 91 00 20 	lds	r18, 0x2000	; 0x802000 <__DATA_REGION_ORIGIN__>
     eb2:	30 91 01 20 	lds	r19, 0x2001	; 0x802001 <__DATA_REGION_ORIGIN__+0x1>
     eb6:	21 15       	cp	r18, r1
     eb8:	31 05       	cpc	r19, r1
     eba:	41 f4       	brne	.+16     	; 0xecc <malloc+0xea>
     ebc:	2d b7       	in	r18, 0x3d	; 61
     ebe:	3e b7       	in	r19, 0x3e	; 62
     ec0:	40 91 04 20 	lds	r20, 0x2004	; 0x802004 <__malloc_margin>
     ec4:	50 91 05 20 	lds	r21, 0x2005	; 0x802005 <__malloc_margin+0x1>
     ec8:	24 1b       	sub	r18, r20
     eca:	35 0b       	sbc	r19, r21
     ecc:	e0 91 88 20 	lds	r30, 0x2088	; 0x802088 <__brkval>
     ed0:	f0 91 89 20 	lds	r31, 0x2089	; 0x802089 <__brkval+0x1>
     ed4:	e2 17       	cp	r30, r18
     ed6:	f3 07       	cpc	r31, r19
     ed8:	a0 f4       	brcc	.+40     	; 0xf02 <malloc+0x120>
     eda:	2e 1b       	sub	r18, r30
     edc:	3f 0b       	sbc	r19, r31
     ede:	28 17       	cp	r18, r24
     ee0:	39 07       	cpc	r19, r25
     ee2:	78 f0       	brcs	.+30     	; 0xf02 <malloc+0x120>
     ee4:	ac 01       	movw	r20, r24
     ee6:	4e 5f       	subi	r20, 0xFE	; 254
     ee8:	5f 4f       	sbci	r21, 0xFF	; 255
     eea:	24 17       	cp	r18, r20
     eec:	35 07       	cpc	r19, r21
     eee:	48 f0       	brcs	.+18     	; 0xf02 <malloc+0x120>
     ef0:	4e 0f       	add	r20, r30
     ef2:	5f 1f       	adc	r21, r31
     ef4:	40 93 88 20 	sts	0x2088, r20	; 0x802088 <__brkval>
     ef8:	50 93 89 20 	sts	0x2089, r21	; 0x802089 <__brkval+0x1>
     efc:	81 93       	st	Z+, r24
     efe:	91 93       	st	Z+, r25
     f00:	02 c0       	rjmp	.+4      	; 0xf06 <malloc+0x124>
     f02:	e0 e0       	ldi	r30, 0x00	; 0
     f04:	f0 e0       	ldi	r31, 0x00	; 0
     f06:	cf 01       	movw	r24, r30
     f08:	df 91       	pop	r29
     f0a:	cf 91       	pop	r28
     f0c:	1f 91       	pop	r17
     f0e:	0f 91       	pop	r16
     f10:	08 95       	ret

00000f12 <free>:
     f12:	cf 93       	push	r28
     f14:	df 93       	push	r29
     f16:	00 97       	sbiw	r24, 0x00	; 0
     f18:	09 f4       	brne	.+2      	; 0xf1c <free+0xa>
     f1a:	81 c0       	rjmp	.+258    	; 0x101e <free+0x10c>
     f1c:	fc 01       	movw	r30, r24
     f1e:	32 97       	sbiw	r30, 0x02	; 2
     f20:	12 82       	std	Z+2, r1	; 0x02
     f22:	13 82       	std	Z+3, r1	; 0x03
     f24:	a0 91 8a 20 	lds	r26, 0x208A	; 0x80208a <__flp>
     f28:	b0 91 8b 20 	lds	r27, 0x208B	; 0x80208b <__flp+0x1>
     f2c:	10 97       	sbiw	r26, 0x00	; 0
     f2e:	81 f4       	brne	.+32     	; 0xf50 <free+0x3e>
     f30:	20 81       	ld	r18, Z
     f32:	31 81       	ldd	r19, Z+1	; 0x01
     f34:	82 0f       	add	r24, r18
     f36:	93 1f       	adc	r25, r19
     f38:	20 91 88 20 	lds	r18, 0x2088	; 0x802088 <__brkval>
     f3c:	30 91 89 20 	lds	r19, 0x2089	; 0x802089 <__brkval+0x1>
     f40:	28 17       	cp	r18, r24
     f42:	39 07       	cpc	r19, r25
     f44:	51 f5       	brne	.+84     	; 0xf9a <free+0x88>
     f46:	e0 93 88 20 	sts	0x2088, r30	; 0x802088 <__brkval>
     f4a:	f0 93 89 20 	sts	0x2089, r31	; 0x802089 <__brkval+0x1>
     f4e:	67 c0       	rjmp	.+206    	; 0x101e <free+0x10c>
     f50:	ed 01       	movw	r28, r26
     f52:	20 e0       	ldi	r18, 0x00	; 0
     f54:	30 e0       	ldi	r19, 0x00	; 0
     f56:	ce 17       	cp	r28, r30
     f58:	df 07       	cpc	r29, r31
     f5a:	40 f4       	brcc	.+16     	; 0xf6c <free+0x5a>
     f5c:	4a 81       	ldd	r20, Y+2	; 0x02
     f5e:	5b 81       	ldd	r21, Y+3	; 0x03
     f60:	9e 01       	movw	r18, r28
     f62:	41 15       	cp	r20, r1
     f64:	51 05       	cpc	r21, r1
     f66:	f1 f0       	breq	.+60     	; 0xfa4 <free+0x92>
     f68:	ea 01       	movw	r28, r20
     f6a:	f5 cf       	rjmp	.-22     	; 0xf56 <free+0x44>
     f6c:	c2 83       	std	Z+2, r28	; 0x02
     f6e:	d3 83       	std	Z+3, r29	; 0x03
     f70:	40 81       	ld	r20, Z
     f72:	51 81       	ldd	r21, Z+1	; 0x01
     f74:	84 0f       	add	r24, r20
     f76:	95 1f       	adc	r25, r21
     f78:	c8 17       	cp	r28, r24
     f7a:	d9 07       	cpc	r29, r25
     f7c:	59 f4       	brne	.+22     	; 0xf94 <free+0x82>
     f7e:	88 81       	ld	r24, Y
     f80:	99 81       	ldd	r25, Y+1	; 0x01
     f82:	84 0f       	add	r24, r20
     f84:	95 1f       	adc	r25, r21
     f86:	02 96       	adiw	r24, 0x02	; 2
     f88:	80 83       	st	Z, r24
     f8a:	91 83       	std	Z+1, r25	; 0x01
     f8c:	8a 81       	ldd	r24, Y+2	; 0x02
     f8e:	9b 81       	ldd	r25, Y+3	; 0x03
     f90:	82 83       	std	Z+2, r24	; 0x02
     f92:	93 83       	std	Z+3, r25	; 0x03
     f94:	21 15       	cp	r18, r1
     f96:	31 05       	cpc	r19, r1
     f98:	29 f4       	brne	.+10     	; 0xfa4 <free+0x92>
     f9a:	e0 93 8a 20 	sts	0x208A, r30	; 0x80208a <__flp>
     f9e:	f0 93 8b 20 	sts	0x208B, r31	; 0x80208b <__flp+0x1>
     fa2:	3d c0       	rjmp	.+122    	; 0x101e <free+0x10c>
     fa4:	e9 01       	movw	r28, r18
     fa6:	ea 83       	std	Y+2, r30	; 0x02
     fa8:	fb 83       	std	Y+3, r31	; 0x03
     faa:	49 91       	ld	r20, Y+
     fac:	59 91       	ld	r21, Y+
     fae:	c4 0f       	add	r28, r20
     fb0:	d5 1f       	adc	r29, r21
     fb2:	ec 17       	cp	r30, r28
     fb4:	fd 07       	cpc	r31, r29
     fb6:	61 f4       	brne	.+24     	; 0xfd0 <free+0xbe>
     fb8:	80 81       	ld	r24, Z
     fba:	91 81       	ldd	r25, Z+1	; 0x01
     fbc:	84 0f       	add	r24, r20
     fbe:	95 1f       	adc	r25, r21
     fc0:	02 96       	adiw	r24, 0x02	; 2
     fc2:	e9 01       	movw	r28, r18
     fc4:	88 83       	st	Y, r24
     fc6:	99 83       	std	Y+1, r25	; 0x01
     fc8:	82 81       	ldd	r24, Z+2	; 0x02
     fca:	93 81       	ldd	r25, Z+3	; 0x03
     fcc:	8a 83       	std	Y+2, r24	; 0x02
     fce:	9b 83       	std	Y+3, r25	; 0x03
     fd0:	e0 e0       	ldi	r30, 0x00	; 0
     fd2:	f0 e0       	ldi	r31, 0x00	; 0
     fd4:	12 96       	adiw	r26, 0x02	; 2
     fd6:	8d 91       	ld	r24, X+
     fd8:	9c 91       	ld	r25, X
     fda:	13 97       	sbiw	r26, 0x03	; 3
     fdc:	00 97       	sbiw	r24, 0x00	; 0
     fde:	19 f0       	breq	.+6      	; 0xfe6 <free+0xd4>
     fe0:	fd 01       	movw	r30, r26
     fe2:	dc 01       	movw	r26, r24
     fe4:	f7 cf       	rjmp	.-18     	; 0xfd4 <free+0xc2>
     fe6:	8d 91       	ld	r24, X+
     fe8:	9c 91       	ld	r25, X
     fea:	11 97       	sbiw	r26, 0x01	; 1
     fec:	9d 01       	movw	r18, r26
     fee:	2e 5f       	subi	r18, 0xFE	; 254
     ff0:	3f 4f       	sbci	r19, 0xFF	; 255
     ff2:	82 0f       	add	r24, r18
     ff4:	93 1f       	adc	r25, r19
     ff6:	20 91 88 20 	lds	r18, 0x2088	; 0x802088 <__brkval>
     ffa:	30 91 89 20 	lds	r19, 0x2089	; 0x802089 <__brkval+0x1>
     ffe:	28 17       	cp	r18, r24
    1000:	39 07       	cpc	r19, r25
    1002:	69 f4       	brne	.+26     	; 0x101e <free+0x10c>
    1004:	30 97       	sbiw	r30, 0x00	; 0
    1006:	29 f4       	brne	.+10     	; 0x1012 <free+0x100>
    1008:	10 92 8a 20 	sts	0x208A, r1	; 0x80208a <__flp>
    100c:	10 92 8b 20 	sts	0x208B, r1	; 0x80208b <__flp+0x1>
    1010:	02 c0       	rjmp	.+4      	; 0x1016 <free+0x104>
    1012:	12 82       	std	Z+2, r1	; 0x02
    1014:	13 82       	std	Z+3, r1	; 0x03
    1016:	a0 93 88 20 	sts	0x2088, r26	; 0x802088 <__brkval>
    101a:	b0 93 89 20 	sts	0x2089, r27	; 0x802089 <__brkval+0x1>
    101e:	df 91       	pop	r29
    1020:	cf 91       	pop	r28
    1022:	08 95       	ret

00001024 <atoi>:
    1024:	fc 01       	movw	r30, r24
    1026:	88 27       	eor	r24, r24
    1028:	99 27       	eor	r25, r25
    102a:	e8 94       	clt
    102c:	21 91       	ld	r18, Z+
    102e:	20 32       	cpi	r18, 0x20	; 32
    1030:	e9 f3       	breq	.-6      	; 0x102c <atoi+0x8>
    1032:	29 30       	cpi	r18, 0x09	; 9
    1034:	10 f0       	brcs	.+4      	; 0x103a <atoi+0x16>
    1036:	2e 30       	cpi	r18, 0x0E	; 14
    1038:	c8 f3       	brcs	.-14     	; 0x102c <atoi+0x8>
    103a:	2b 32       	cpi	r18, 0x2B	; 43
    103c:	41 f0       	breq	.+16     	; 0x104e <atoi+0x2a>
    103e:	2d 32       	cpi	r18, 0x2D	; 45
    1040:	39 f4       	brne	.+14     	; 0x1050 <atoi+0x2c>
    1042:	68 94       	set
    1044:	04 c0       	rjmp	.+8      	; 0x104e <atoi+0x2a>
    1046:	0e 94 45 08 	call	0x108a	; 0x108a <__mulhi_const_10>
    104a:	82 0f       	add	r24, r18
    104c:	91 1d       	adc	r25, r1
    104e:	21 91       	ld	r18, Z+
    1050:	20 53       	subi	r18, 0x30	; 48
    1052:	2a 30       	cpi	r18, 0x0A	; 10
    1054:	c0 f3       	brcs	.-16     	; 0x1046 <atoi+0x22>
    1056:	1e f4       	brtc	.+6      	; 0x105e <atoi+0x3a>
    1058:	90 95       	com	r25
    105a:	81 95       	neg	r24
    105c:	9f 4f       	sbci	r25, 0xFF	; 255
    105e:	08 95       	ret

00001060 <strcpy>:
    1060:	fb 01       	movw	r30, r22
    1062:	dc 01       	movw	r26, r24
    1064:	01 90       	ld	r0, Z+
    1066:	0d 92       	st	X+, r0
    1068:	00 20       	and	r0, r0
    106a:	e1 f7       	brne	.-8      	; 0x1064 <strcpy+0x4>
    106c:	08 95       	ret

0000106e <strncmp>:
    106e:	fb 01       	movw	r30, r22
    1070:	dc 01       	movw	r26, r24
    1072:	41 50       	subi	r20, 0x01	; 1
    1074:	50 40       	sbci	r21, 0x00	; 0
    1076:	30 f0       	brcs	.+12     	; 0x1084 <strncmp+0x16>
    1078:	8d 91       	ld	r24, X+
    107a:	01 90       	ld	r0, Z+
    107c:	80 19       	sub	r24, r0
    107e:	19 f4       	brne	.+6      	; 0x1086 <strncmp+0x18>
    1080:	00 20       	and	r0, r0
    1082:	b9 f7       	brne	.-18     	; 0x1072 <strncmp+0x4>
    1084:	88 1b       	sub	r24, r24
    1086:	99 0b       	sbc	r25, r25
    1088:	08 95       	ret

0000108a <__mulhi_const_10>:
    108a:	7a e0       	ldi	r23, 0x0A	; 10
    108c:	97 9f       	mul	r25, r23
    108e:	90 2d       	mov	r25, r0
    1090:	87 9f       	mul	r24, r23
    1092:	80 2d       	mov	r24, r0
    1094:	91 0d       	add	r25, r1
    1096:	11 24       	eor	r1, r1
    1098:	08 95       	ret

0000109a <_exit>:
    109a:	f8 94       	cli

0000109c <__stop_program>:
    109c:	ff cf       	rjmp	.-2      	; 0x109c <__stop_program>
